
ir_heat.elf:     file format elf32-avr

Sections:
Idx Name          Size      VMA       LMA       File off  Algn
  0 .data         000000a4  00800100  000020a0  00002134  2**0
                  CONTENTS, ALLOC, LOAD, DATA
  1 .text         000020a0  00000000  00000000  00000094  2**1
                  CONTENTS, ALLOC, LOAD, READONLY, CODE
  2 .bss          00000061  008001a4  008001a4  000021d8  2**0
                  ALLOC
  3 .stab         000018d8  00000000  00000000  000021d8  2**2
                  CONTENTS, READONLY, DEBUGGING
  4 .stabstr      00000e14  00000000  00000000  00003ab0  2**0
                  CONTENTS, READONLY, DEBUGGING

Disassembly of section .text:

00000000 <__vectors>:
       0:	0c 94 b5 00 	jmp	0x16a	; 0x16a <__ctors_end>
       4:	0c 94 6c 01 	jmp	0x2d8	; 0x2d8 <__vector_1>
       8:	0c 94 d2 00 	jmp	0x1a4	; 0x1a4 <__bad_interrupt>
       c:	0c 94 d2 00 	jmp	0x1a4	; 0x1a4 <__bad_interrupt>
      10:	0c 94 d2 00 	jmp	0x1a4	; 0x1a4 <__bad_interrupt>
      14:	0c 94 d2 00 	jmp	0x1a4	; 0x1a4 <__bad_interrupt>
      18:	0c 94 d2 00 	jmp	0x1a4	; 0x1a4 <__bad_interrupt>
      1c:	0c 94 d2 00 	jmp	0x1a4	; 0x1a4 <__bad_interrupt>
      20:	0c 94 d2 00 	jmp	0x1a4	; 0x1a4 <__bad_interrupt>
      24:	0c 94 d4 00 	jmp	0x1a8	; 0x1a8 <__vector_9>
      28:	0c 94 d2 00 	jmp	0x1a4	; 0x1a4 <__bad_interrupt>
      2c:	0c 94 d2 00 	jmp	0x1a4	; 0x1a4 <__bad_interrupt>
      30:	0c 94 d2 00 	jmp	0x1a4	; 0x1a4 <__bad_interrupt>
      34:	0c 94 eb 00 	jmp	0x1d6	; 0x1d6 <__vector_13>
      38:	0c 94 d2 00 	jmp	0x1a4	; 0x1a4 <__bad_interrupt>
      3c:	0c 94 d2 00 	jmp	0x1a4	; 0x1a4 <__bad_interrupt>
      40:	0c 94 08 01 	jmp	0x210	; 0x210 <__vector_16>
      44:	0c 94 d2 00 	jmp	0x1a4	; 0x1a4 <__bad_interrupt>
      48:	0c 94 e3 01 	jmp	0x3c6	; 0x3c6 <__vector_18>
      4c:	0c 94 11 02 	jmp	0x422	; 0x422 <__vector_19>
      50:	0c 94 d2 00 	jmp	0x1a4	; 0x1a4 <__bad_interrupt>
      54:	0c 94 d2 00 	jmp	0x1a4	; 0x1a4 <__bad_interrupt>
      58:	0c 94 d2 00 	jmp	0x1a4	; 0x1a4 <__bad_interrupt>
      5c:	0c 94 d2 00 	jmp	0x1a4	; 0x1a4 <__bad_interrupt>
      60:	0c 94 d2 00 	jmp	0x1a4	; 0x1a4 <__bad_interrupt>
      64:	0c 94 d2 00 	jmp	0x1a4	; 0x1a4 <__bad_interrupt>

00000068 <__c.1790>:
      68:	6e 61 6e 00                                         nan.

0000006c <__c.1788>:
      6c:	69 6e 66 00 00 40 7a 10 f3 5a 00 a0 72 4e 18 09     inf..@z..Z..rN..
      7c:	00 10 a5 d4 e8 00 00 e8 76 48 17 00 00 e4 0b 54     ........vH.....T
      8c:	02 00 00 ca 9a 3b 00 00 00 e1 f5 05 00 00 80 96     .....;..........
      9c:	98 00 00 00 40 42 0f 00 00 00 a0 86 01 00 00 00     ....@B..........
      ac:	10 27 00 00 00 00 e8 03 00 00 00 00 64 00 00 00     .'..........d...
      bc:	00 00 0a 00 00 00 00 00 01 00 00 00 00 00 2c 76     ..............,v
      cc:	d8 88 dc 67 4f 08 23 df c1 df ae 59 e1 b1 b7 96     ...gO.#....Y....
      dc:	e5 e3 e4 53 c6 3a e6 51 99 76 96 e8 e6 c2 84 26     ...S.:.Q.v.....&
      ec:	eb 89 8c 9b 62 ed 40 7c 6f fc ef bc 9c 9f 40 f2     ....b.@|o.....@.
      fc:	ba a5 6f a5 f4 90 05 5a 2a f7 5c 93 6b 6c f9 67     ..o....Z*.\.kl.g
     10c:	6d c1 1b fc e0 e4 0d 47 fe f5 20 e6 b5 00 d0 ed     m......G.. .....
     11c:	90 2e 03 00 94 35 77 05 00 80 84 1e 08 00 00 20     .....5w........ 
     12c:	4e 0a 00 00 00 c8 0c 33 33 33 33 0f 98 6e 12 83     N......3333..n..
     13c:	11 41 ef 8d 21 14 89 3b e6 55 16 cf fe e6 db 18     .A..!..;.U......
     14c:	d1 84 4b 38 1b f7 7c 1d 90 1d a4 bb e4 24 20 32     ..K8..|......$ 2
     15c:	84 72 5e 22 81 00 c9 f1 24 ec a1 e5 3d 27           .r^"....$...='

0000016a <__ctors_end>:
     16a:	11 24       	eor	r1, r1
     16c:	1f be       	out	0x3f, r1	; 63
     16e:	cf ef       	ldi	r28, 0xFF	; 255
     170:	d4 e0       	ldi	r29, 0x04	; 4
     172:	de bf       	out	0x3e, r29	; 62
     174:	cd bf       	out	0x3d, r28	; 61

00000176 <__do_copy_data>:
     176:	11 e0       	ldi	r17, 0x01	; 1
     178:	a0 e0       	ldi	r26, 0x00	; 0
     17a:	b1 e0       	ldi	r27, 0x01	; 1
     17c:	e0 ea       	ldi	r30, 0xA0	; 160
     17e:	f0 e2       	ldi	r31, 0x20	; 32
     180:	02 c0       	rjmp	.+4      	; 0x186 <.do_copy_data_start>

00000182 <.do_copy_data_loop>:
     182:	05 90       	lpm	r0, Z+
     184:	0d 92       	st	X+, r0

00000186 <.do_copy_data_start>:
     186:	a4 3a       	cpi	r26, 0xA4	; 164
     188:	b1 07       	cpc	r27, r17
     18a:	d9 f7       	brne	.-10     	; 0x182 <.do_copy_data_loop>

0000018c <__do_clear_bss>:
     18c:	12 e0       	ldi	r17, 0x02	; 2
     18e:	a4 ea       	ldi	r26, 0xA4	; 164
     190:	b1 e0       	ldi	r27, 0x01	; 1
     192:	01 c0       	rjmp	.+2      	; 0x196 <.do_clear_bss_start>

00000194 <.do_clear_bss_loop>:
     194:	1d 92       	st	X+, r1

00000196 <.do_clear_bss_start>:
     196:	a5 30       	cpi	r26, 0x05	; 5
     198:	b1 07       	cpc	r27, r17
     19a:	e1 f7       	brne	.-8      	; 0x194 <.do_clear_bss_loop>
     19c:	0e 94 af 04 	call	0x95e	; 0x95e <main>
     1a0:	0c 94 4e 10 	jmp	0x209c	; 0x209c <_exit>

000001a4 <__bad_interrupt>:
     1a4:	0c 94 00 00 	jmp	0	; 0x0 <__vectors>

000001a8 <__vector_9>:
uint16_t	t_abs_threshold_down	=  250;
*/


// Clock Timer
SIGNAL(SIG_OVERFLOW2) {
     1a8:	1f 92       	push	r1
     1aa:	0f 92       	push	r0
     1ac:	0f b6       	in	r0, 0x3f	; 63
     1ae:	0f 92       	push	r0
     1b0:	11 24       	eor	r1, r1
     1b2:	8f 93       	push	r24
     1b4:	df 93       	push	r29
     1b6:	cf 93       	push	r28
     1b8:	cd b7       	in	r28, 0x3d	; 61
     1ba:	de b7       	in	r29, 0x3e	; 62
	interval++;
     1bc:	80 91 00 01 	lds	r24, 0x0100
     1c0:	8f 5f       	subi	r24, 0xFF	; 255
     1c2:	80 93 00 01 	sts	0x0100, r24
}
     1c6:	cf 91       	pop	r28
     1c8:	df 91       	pop	r29
     1ca:	8f 91       	pop	r24
     1cc:	0f 90       	pop	r0
     1ce:	0f be       	out	0x3f, r0	; 63
     1d0:	0f 90       	pop	r0
     1d2:	1f 90       	pop	r1
     1d4:	18 95       	reti

000001d6 <__vector_13>:

SIGNAL(SIG_OVERFLOW1) {
     1d6:	1f 92       	push	r1
     1d8:	0f 92       	push	r0
     1da:	0f b6       	in	r0, 0x3f	; 63
     1dc:	0f 92       	push	r0
     1de:	11 24       	eor	r1, r1
     1e0:	ef 93       	push	r30
     1e2:	ff 93       	push	r31
     1e4:	df 93       	push	r29
     1e6:	cf 93       	push	r28
     1e8:	cd b7       	in	r28, 0x3d	; 61
     1ea:	de b7       	in	r29, 0x3e	; 62
	TIMER1_STOP;
     1ec:	e1 e8       	ldi	r30, 0x81	; 129
     1ee:	f0 e0       	ldi	r31, 0x00	; 0
     1f0:	10 82       	st	Z, r1
	TCNT1H = 0;
     1f2:	e5 e8       	ldi	r30, 0x85	; 133
     1f4:	f0 e0       	ldi	r31, 0x00	; 0
     1f6:	10 82       	st	Z, r1
	TCNT1L = 0;
     1f8:	e4 e8       	ldi	r30, 0x84	; 132
     1fa:	f0 e0       	ldi	r31, 0x00	; 0
     1fc:	10 82       	st	Z, r1
}
     1fe:	cf 91       	pop	r28
     200:	df 91       	pop	r29
     202:	ff 91       	pop	r31
     204:	ef 91       	pop	r30
     206:	0f 90       	pop	r0
     208:	0f be       	out	0x3f, r0	; 63
     20a:	0f 90       	pop	r0
     20c:	1f 90       	pop	r1
     20e:	18 95       	reti

00000210 <__vector_16>:


// LED Flasher
SIGNAL(SIG_OVERFLOW0) {
     210:	1f 92       	push	r1
     212:	0f 92       	push	r0
     214:	0f b6       	in	r0, 0x3f	; 63
     216:	0f 92       	push	r0
     218:	11 24       	eor	r1, r1
     21a:	2f 93       	push	r18
     21c:	3f 93       	push	r19
     21e:	4f 93       	push	r20
     220:	5f 93       	push	r21
     222:	8f 93       	push	r24
     224:	9f 93       	push	r25
     226:	af 93       	push	r26
     228:	bf 93       	push	r27
     22a:	ef 93       	push	r30
     22c:	ff 93       	push	r31
     22e:	df 93       	push	r29
     230:	cf 93       	push	r28
     232:	0f 92       	push	r0
     234:	cd b7       	in	r28, 0x3d	; 61
     236:	de b7       	in	r29, 0x3e	; 62
	static uint8_t	c = 0;
	uint8_t slow=0;
     238:	19 82       	std	Y+1, r1	; 0x01
	c++;
     23a:	80 91 a5 01 	lds	r24, 0x01A5
     23e:	8f 5f       	subi	r24, 0xFF	; 255
     240:	80 93 a5 01 	sts	0x01A5, r24
	if (mode==MODE_TEMP_PROT) {
     244:	80 91 d8 01 	lds	r24, 0x01D8
     248:	83 30       	cpi	r24, 0x03	; 3
     24a:	c9 f4       	brne	.+50     	; 0x27e <__vector_16+0x6e>
		if(c > (6<<slow)) {
     24c:	80 91 a5 01 	lds	r24, 0x01A5
     250:	48 2f       	mov	r20, r24
     252:	50 e0       	ldi	r21, 0x00	; 0
     254:	89 81       	ldd	r24, Y+1	; 0x01
     256:	28 2f       	mov	r18, r24
     258:	30 e0       	ldi	r19, 0x00	; 0
     25a:	86 e0       	ldi	r24, 0x06	; 6
     25c:	90 e0       	ldi	r25, 0x00	; 0
     25e:	02 2e       	mov	r0, r18
     260:	02 c0       	rjmp	.+4      	; 0x266 <__vector_16+0x56>
     262:	88 0f       	add	r24, r24
     264:	99 1f       	adc	r25, r25
     266:	0a 94       	dec	r0
     268:	e2 f7       	brpl	.-8      	; 0x262 <__vector_16+0x52>
     26a:	84 17       	cp	r24, r20
     26c:	95 07       	cpc	r25, r21
     26e:	3c f4       	brge	.+14     	; 0x27e <__vector_16+0x6e>
			FLASH_LED_ON;
     270:	a8 e2       	ldi	r26, 0x28	; 40
     272:	b0 e0       	ldi	r27, 0x00	; 0
     274:	e8 e2       	ldi	r30, 0x28	; 40
     276:	f0 e0       	ldi	r31, 0x00	; 0
     278:	80 81       	ld	r24, Z
     27a:	88 60       	ori	r24, 0x08	; 8
     27c:	8c 93       	st	X, r24
		}
	}
	if(c > (10<<slow)) {
     27e:	80 91 a5 01 	lds	r24, 0x01A5
     282:	48 2f       	mov	r20, r24
     284:	50 e0       	ldi	r21, 0x00	; 0
     286:	89 81       	ldd	r24, Y+1	; 0x01
     288:	28 2f       	mov	r18, r24
     28a:	30 e0       	ldi	r19, 0x00	; 0
     28c:	8a e0       	ldi	r24, 0x0A	; 10
     28e:	90 e0       	ldi	r25, 0x00	; 0
     290:	02 2e       	mov	r0, r18
     292:	02 c0       	rjmp	.+4      	; 0x298 <__vector_16+0x88>
     294:	88 0f       	add	r24, r24
     296:	99 1f       	adc	r25, r25
     298:	0a 94       	dec	r0
     29a:	e2 f7       	brpl	.-8      	; 0x294 <__vector_16+0x84>
     29c:	84 17       	cp	r24, r20
     29e:	95 07       	cpc	r25, r21
     2a0:	4c f4       	brge	.+18     	; 0x2b4 <__vector_16+0xa4>
		c=0;
     2a2:	10 92 a5 01 	sts	0x01A5, r1
		FLASH_LED_OFF;
     2a6:	a8 e2       	ldi	r26, 0x28	; 40
     2a8:	b0 e0       	ldi	r27, 0x00	; 0
     2aa:	e8 e2       	ldi	r30, 0x28	; 40
     2ac:	f0 e0       	ldi	r31, 0x00	; 0
     2ae:	80 81       	ld	r24, Z
     2b0:	87 7f       	andi	r24, 0xF7	; 247
     2b2:	8c 93       	st	X, r24
	}
}
     2b4:	0f 90       	pop	r0
     2b6:	cf 91       	pop	r28
     2b8:	df 91       	pop	r29
     2ba:	ff 91       	pop	r31
     2bc:	ef 91       	pop	r30
     2be:	bf 91       	pop	r27
     2c0:	af 91       	pop	r26
     2c2:	9f 91       	pop	r25
     2c4:	8f 91       	pop	r24
     2c6:	5f 91       	pop	r21
     2c8:	4f 91       	pop	r20
     2ca:	3f 91       	pop	r19
     2cc:	2f 91       	pop	r18
     2ce:	0f 90       	pop	r0
     2d0:	0f be       	out	0x3f, r0	; 63
     2d2:	0f 90       	pop	r0
     2d4:	1f 90       	pop	r1
     2d6:	18 95       	reti

000002d8 <__vector_1>:

//*******************************************
//
// Taster IQR und Entprellung
//
SIGNAL(SIG_INTERRUPT0) {
     2d8:	1f 92       	push	r1
     2da:	0f 92       	push	r0
     2dc:	0f b6       	in	r0, 0x3f	; 63
     2de:	0f 92       	push	r0
     2e0:	11 24       	eor	r1, r1
     2e2:	2f 93       	push	r18
     2e4:	8f 93       	push	r24
     2e6:	9f 93       	push	r25
     2e8:	ef 93       	push	r30
     2ea:	ff 93       	push	r31
     2ec:	df 93       	push	r29
     2ee:	cf 93       	push	r28
     2f0:	00 d0       	rcall	.+0      	; 0x2f2 <__vector_1+0x1a>
     2f2:	0f 92       	push	r0
     2f4:	cd b7       	in	r28, 0x3d	; 61
     2f6:	de b7       	in	r29, 0x3e	; 62
	static uint8_t running = 0;
	
	if(running | TCNT1H | TCNT1L){
     2f8:	e5 e8       	ldi	r30, 0x85	; 133
     2fa:	f0 e0       	ldi	r31, 0x00	; 0
     2fc:	90 81       	ld	r25, Z
     2fe:	80 91 a6 01 	lds	r24, 0x01A6
     302:	98 2b       	or	r25, r24
     304:	e4 e8       	ldi	r30, 0x84	; 132
     306:	f0 e0       	ldi	r31, 0x00	; 0
     308:	80 81       	ld	r24, Z
     30a:	89 2b       	or	r24, r25
     30c:	88 23       	and	r24, r24
     30e:	09 f0       	breq	.+2      	; 0x312 <__vector_1+0x3a>
     310:	4b c0       	rjmp	.+150    	; 0x3a8 <__vector_1+0xd0>
//		printf("X");
		return;
	}
	running = 1;
     312:	81 e0       	ldi	r24, 0x01	; 1
     314:	80 93 a6 01 	sts	0x01A6, r24
	
	uint16_t i;
	uint8_t 	c = 0;
     318:	19 82       	std	Y+1, r1	; 0x01
	EIMSK = 0;
     31a:	ed e3       	ldi	r30, 0x3D	; 61
     31c:	f0 e0       	ldi	r31, 0x00	; 0
     31e:	10 82       	st	Z, r1
	sei();
     320:	78 94       	sei
//	printf("In");
	for(i=0;i<2000;i++) if((PIND & (1<<SWITCH))) c++;
     322:	1b 82       	std	Y+3, r1	; 0x03
     324:	1a 82       	std	Y+2, r1	; 0x02
     326:	11 c0       	rjmp	.+34     	; 0x34a <__vector_1+0x72>
     328:	e9 e2       	ldi	r30, 0x29	; 41
     32a:	f0 e0       	ldi	r31, 0x00	; 0
     32c:	80 81       	ld	r24, Z
     32e:	88 2f       	mov	r24, r24
     330:	90 e0       	ldi	r25, 0x00	; 0
     332:	84 70       	andi	r24, 0x04	; 4
     334:	90 70       	andi	r25, 0x00	; 0
     336:	00 97       	sbiw	r24, 0x00	; 0
     338:	19 f0       	breq	.+6      	; 0x340 <__vector_1+0x68>
     33a:	89 81       	ldd	r24, Y+1	; 0x01
     33c:	8f 5f       	subi	r24, 0xFF	; 255
     33e:	89 83       	std	Y+1, r24	; 0x01
     340:	8a 81       	ldd	r24, Y+2	; 0x02
     342:	9b 81       	ldd	r25, Y+3	; 0x03
     344:	01 96       	adiw	r24, 0x01	; 1
     346:	9b 83       	std	Y+3, r25	; 0x03
     348:	8a 83       	std	Y+2, r24	; 0x02
     34a:	8a 81       	ldd	r24, Y+2	; 0x02
     34c:	9b 81       	ldd	r25, Y+3	; 0x03
     34e:	27 e0       	ldi	r18, 0x07	; 7
     350:	80 3d       	cpi	r24, 0xD0	; 208
     352:	92 07       	cpc	r25, r18
     354:	48 f3       	brcs	.-46     	; 0x328 <__vector_1+0x50>
//	printf(" %i ", c);

	if(c < 100) {
     356:	89 81       	ldd	r24, Y+1	; 0x01
     358:	84 36       	cpi	r24, 0x64	; 100
     35a:	e0 f4       	brcc	.+56     	; 0x394 <__vector_1+0xbc>
		TCNT1L = 1;
     35c:	e4 e8       	ldi	r30, 0x84	; 132
     35e:	f0 e0       	ldi	r31, 0x00	; 0
     360:	81 e0       	ldi	r24, 0x01	; 1
     362:	80 83       	st	Z, r24
		TIMER1_RUN;
     364:	e1 e8       	ldi	r30, 0x81	; 129
     366:	f0 e0       	ldi	r31, 0x00	; 0
     368:	82 e0       	ldi	r24, 0x02	; 2
     36a:	80 83       	st	Z, r24
		switch(mode) {
     36c:	80 91 d8 01 	lds	r24, 0x01D8
     370:	88 2f       	mov	r24, r24
     372:	90 e0       	ldi	r25, 0x00	; 0
     374:	00 97       	sbiw	r24, 0x00	; 0
     376:	61 f4       	brne	.+24     	; 0x390 <__vector_1+0xb8>
		case MODE_OFF:
			if(off_counter) mode = MODE_TEMP_PROT;
     378:	80 91 a4 01 	lds	r24, 0x01A4
     37c:	88 23       	and	r24, r24
     37e:	21 f0       	breq	.+8      	; 0x388 <__vector_1+0xb0>
     380:	83 e0       	ldi	r24, 0x03	; 3
     382:	80 93 d8 01 	sts	0x01D8, r24
     386:	06 c0       	rjmp	.+12     	; 0x394 <__vector_1+0xbc>
			else mode = MODE_ON;
     388:	81 e0       	ldi	r24, 0x01	; 1
     38a:	80 93 d8 01 	sts	0x01D8, r24
     38e:	02 c0       	rjmp	.+4      	; 0x394 <__vector_1+0xbc>
			break;
		case MODE_ON:
		case MODE_TEMP_PROT:
		default:
			mode = MODE_OFF;
     390:	10 92 d8 01 	sts	0x01D8, r1
		}
	}
//	printf("Out\n");
	EIFR 		= (1<<INTF0);
     394:	ec e3       	ldi	r30, 0x3C	; 60
     396:	f0 e0       	ldi	r31, 0x00	; 0
     398:	81 e0       	ldi	r24, 0x01	; 1
     39a:	80 83       	st	Z, r24
	EIMSK 	= (1<<INT0);
     39c:	ed e3       	ldi	r30, 0x3D	; 61
     39e:	f0 e0       	ldi	r31, 0x00	; 0
     3a0:	81 e0       	ldi	r24, 0x01	; 1
     3a2:	80 83       	st	Z, r24
	running 	= 0;
     3a4:	10 92 a6 01 	sts	0x01A6, r1
//	printf("Exit\n");
}
     3a8:	0f 90       	pop	r0
     3aa:	0f 90       	pop	r0
     3ac:	0f 90       	pop	r0
     3ae:	cf 91       	pop	r28
     3b0:	df 91       	pop	r29
     3b2:	ff 91       	pop	r31
     3b4:	ef 91       	pop	r30
     3b6:	9f 91       	pop	r25
     3b8:	8f 91       	pop	r24
     3ba:	2f 91       	pop	r18
     3bc:	0f 90       	pop	r0
     3be:	0f be       	out	0x3f, r0	; 63
     3c0:	0f 90       	pop	r0
     3c2:	1f 90       	pop	r1
     3c4:	18 95       	reti

000003c6 <__vector_18>:



SIGNAL(SIG_USART_RECV) {
     3c6:	1f 92       	push	r1
     3c8:	0f 92       	push	r0
     3ca:	0f b6       	in	r0, 0x3f	; 63
     3cc:	0f 92       	push	r0
     3ce:	11 24       	eor	r1, r1
     3d0:	8f 93       	push	r24
     3d2:	9f 93       	push	r25
     3d4:	ef 93       	push	r30
     3d6:	ff 93       	push	r31
     3d8:	df 93       	push	r29
     3da:	cf 93       	push	r28
     3dc:	0f 92       	push	r0
     3de:	cd b7       	in	r28, 0x3d	; 61
     3e0:	de b7       	in	r29, 0x3e	; 62
//******************
// RX interrupt handler
//
	char c;	
	c = UDR0;							// Get received char
     3e2:	e6 ec       	ldi	r30, 0xC6	; 198
     3e4:	f0 e0       	ldi	r31, 0x00	; 0
     3e6:	80 81       	ld	r24, Z
     3e8:	89 83       	std	Y+1, r24	; 0x01
	rbuf[r_in & RMASK] = c;
     3ea:	80 91 aa 01 	lds	r24, 0x01AA
     3ee:	88 2f       	mov	r24, r24
     3f0:	90 e0       	ldi	r25, 0x00	; 0
     3f2:	8f 71       	andi	r24, 0x1F	; 31
     3f4:	90 70       	andi	r25, 0x00	; 0
     3f6:	fc 01       	movw	r30, r24
     3f8:	e9 54       	subi	r30, 0x49	; 73
     3fa:	fe 4f       	sbci	r31, 0xFE	; 254
     3fc:	89 81       	ldd	r24, Y+1	; 0x01
     3fe:	80 83       	st	Z, r24
	r_in++;
     400:	80 91 aa 01 	lds	r24, 0x01AA
     404:	8f 5f       	subi	r24, 0xFF	; 255
     406:	80 93 aa 01 	sts	0x01AA, r24
}
     40a:	0f 90       	pop	r0
     40c:	cf 91       	pop	r28
     40e:	df 91       	pop	r29
     410:	ff 91       	pop	r31
     412:	ef 91       	pop	r30
     414:	9f 91       	pop	r25
     416:	8f 91       	pop	r24
     418:	0f 90       	pop	r0
     41a:	0f be       	out	0x3f, r0	; 63
     41c:	0f 90       	pop	r0
     41e:	1f 90       	pop	r1
     420:	18 95       	reti

00000422 <__vector_19>:

SIGNAL(SIG_USART_DATA) {
     422:	1f 92       	push	r1
     424:	0f 92       	push	r0
     426:	0f b6       	in	r0, 0x3f	; 63
     428:	0f 92       	push	r0
     42a:	11 24       	eor	r1, r1
     42c:	8f 93       	push	r24
     42e:	9f 93       	push	r25
     430:	af 93       	push	r26
     432:	bf 93       	push	r27
     434:	ef 93       	push	r30
     436:	ff 93       	push	r31
     438:	df 93       	push	r29
     43a:	cf 93       	push	r28
     43c:	cd b7       	in	r28, 0x3d	; 61
     43e:	de b7       	in	r29, 0x3e	; 62
//*******************
// Data register empty interrupt handler.
// Indicates that next char can be transmitted
//
	if(t_in != t_out) {
     440:	90 91 d7 01 	lds	r25, 0x01D7
     444:	80 91 da 01 	lds	r24, 0x01DA
     448:	98 17       	cp	r25, r24
     44a:	99 f0       	breq	.+38     	; 0x472 <__vector_19+0x50>
		UDR0 = tbuf[t_out & TMASK];
     44c:	a6 ec       	ldi	r26, 0xC6	; 198
     44e:	b0 e0       	ldi	r27, 0x00	; 0
     450:	80 91 da 01 	lds	r24, 0x01DA
     454:	88 2f       	mov	r24, r24
     456:	90 e0       	ldi	r25, 0x00	; 0
     458:	8f 71       	andi	r24, 0x1F	; 31
     45a:	90 70       	andi	r25, 0x00	; 0
     45c:	fc 01       	movw	r30, r24
     45e:	e5 52       	subi	r30, 0x25	; 37
     460:	fe 4f       	sbci	r31, 0xFE	; 254
     462:	80 81       	ld	r24, Z
     464:	8c 93       	st	X, r24
		t_out++;	
     466:	80 91 da 01 	lds	r24, 0x01DA
     46a:	8f 5f       	subi	r24, 0xFF	; 255
     46c:	80 93 da 01 	sts	0x01DA, r24
     470:	07 c0       	rjmp	.+14     	; 0x480 <__vector_19+0x5e>
	}
	else {
		UCSR0B &= ~(1<<UDRIE0);
     472:	a1 ec       	ldi	r26, 0xC1	; 193
     474:	b0 e0       	ldi	r27, 0x00	; 0
     476:	e1 ec       	ldi	r30, 0xC1	; 193
     478:	f0 e0       	ldi	r31, 0x00	; 0
     47a:	80 81       	ld	r24, Z
     47c:	8f 7d       	andi	r24, 0xDF	; 223
     47e:	8c 93       	st	X, r24
	}
}
     480:	cf 91       	pop	r28
     482:	df 91       	pop	r29
     484:	ff 91       	pop	r31
     486:	ef 91       	pop	r30
     488:	bf 91       	pop	r27
     48a:	af 91       	pop	r26
     48c:	9f 91       	pop	r25
     48e:	8f 91       	pop	r24
     490:	0f 90       	pop	r0
     492:	0f be       	out	0x3f, r0	; 63
     494:	0f 90       	pop	r0
     496:	1f 90       	pop	r1
     498:	18 95       	reti

0000049a <tbuflen>:

char tbuflen(void) {
     49a:	df 93       	push	r29
     49c:	cf 93       	push	r28
     49e:	cd b7       	in	r28, 0x3d	; 61
     4a0:	de b7       	in	r29, 0x3e	; 62
//****************
// Retrieve pending chars in TX buffer
//
	return(t_in - t_out);
     4a2:	90 91 d7 01 	lds	r25, 0x01D7
     4a6:	80 91 da 01 	lds	r24, 0x01DA
     4aa:	29 2f       	mov	r18, r25
     4ac:	28 1b       	sub	r18, r24
     4ae:	82 2f       	mov	r24, r18
}
     4b0:	cf 91       	pop	r28
     4b2:	df 91       	pop	r29
     4b4:	08 95       	ret

000004b6 <UART_putchar>:

int UART_putchar(char c, FILE *stream) {
     4b6:	df 93       	push	r29
     4b8:	cf 93       	push	r28
     4ba:	00 d0       	rcall	.+0      	; 0x4bc <UART_putchar+0x6>
     4bc:	0f 92       	push	r0
     4be:	cd b7       	in	r28, 0x3d	; 61
     4c0:	de b7       	in	r29, 0x3e	; 62
     4c2:	89 83       	std	Y+1, r24	; 0x01
     4c4:	7b 83       	std	Y+3, r23	; 0x03
     4c6:	6a 83       	std	Y+2, r22	; 0x02
//*********************
// Fills the transmit buffer, if it is full wait
//
	while((TBUFSIZE - tbuflen()) <= 2);  // Wait...
     4c8:	0e 94 4d 02 	call	0x49a	; 0x49a <tbuflen>
     4cc:	28 2f       	mov	r18, r24
     4ce:	30 e0       	ldi	r19, 0x00	; 0
     4d0:	80 e2       	ldi	r24, 0x20	; 32
     4d2:	90 e0       	ldi	r25, 0x00	; 0
     4d4:	82 1b       	sub	r24, r18
     4d6:	93 0b       	sbc	r25, r19
     4d8:	83 30       	cpi	r24, 0x03	; 3
     4da:	91 05       	cpc	r25, r1
     4dc:	ac f3       	brlt	.-22     	; 0x4c8 <UART_putchar+0x12>
	
	// Add data to the transmit buffer, enable TXCIE
	//
	tbuf[t_in & TMASK] = c;
     4de:	80 91 d7 01 	lds	r24, 0x01D7
     4e2:	88 2f       	mov	r24, r24
     4e4:	90 e0       	ldi	r25, 0x00	; 0
     4e6:	8f 71       	andi	r24, 0x1F	; 31
     4e8:	90 70       	andi	r25, 0x00	; 0
     4ea:	fc 01       	movw	r30, r24
     4ec:	e5 52       	subi	r30, 0x25	; 37
     4ee:	fe 4f       	sbci	r31, 0xFE	; 254
     4f0:	89 81       	ldd	r24, Y+1	; 0x01
     4f2:	80 83       	st	Z, r24
	t_in++;	
     4f4:	80 91 d7 01 	lds	r24, 0x01D7
     4f8:	8f 5f       	subi	r24, 0xFF	; 255
     4fa:	80 93 d7 01 	sts	0x01D7, r24
	UCSR0B |= (1<<UDRIE0);			// Enable UDR empty interrupt	
     4fe:	a1 ec       	ldi	r26, 0xC1	; 193
     500:	b0 e0       	ldi	r27, 0x00	; 0
     502:	e1 ec       	ldi	r30, 0xC1	; 193
     504:	f0 e0       	ldi	r31, 0x00	; 0
     506:	80 81       	ld	r24, Z
     508:	80 62       	ori	r24, 0x20	; 32
     50a:	8c 93       	st	X, r24
	return(0);
     50c:	80 e0       	ldi	r24, 0x00	; 0
     50e:	90 e0       	ldi	r25, 0x00	; 0
}
     510:	0f 90       	pop	r0
     512:	0f 90       	pop	r0
     514:	0f 90       	pop	r0
     516:	cf 91       	pop	r28
     518:	df 91       	pop	r29
     51a:	08 95       	ret

0000051c <rbuflen>:

char rbuflen(void) {
     51c:	df 93       	push	r29
     51e:	cf 93       	push	r28
     520:	cd b7       	in	r28, 0x3d	; 61
     522:	de b7       	in	r29, 0x3e	; 62
// ***************
// Retrive pending chars in RX buffer
//
	return(r_in - r_out);
     524:	90 91 aa 01 	lds	r25, 0x01AA
     528:	80 91 d9 01 	lds	r24, 0x01D9
     52c:	29 2f       	mov	r18, r25
     52e:	28 1b       	sub	r18, r24
     530:	82 2f       	mov	r24, r18
}
     532:	cf 91       	pop	r28
     534:	df 91       	pop	r29
     536:	08 95       	ret

00000538 <UART_getchar>:

int UART_getchar(FILE *stream) {
     538:	df 93       	push	r29
     53a:	cf 93       	push	r28
     53c:	00 d0       	rcall	.+0      	; 0x53e <UART_getchar+0x6>
     53e:	0f 92       	push	r0
     540:	cd b7       	in	r28, 0x3d	; 61
     542:	de b7       	in	r29, 0x3e	; 62
     544:	9b 83       	std	Y+3, r25	; 0x03
     546:	8a 83       	std	Y+2, r24	; 0x02
//*******************
// Retieves character from UART. This function is to be passed
// to fdevopen
//
	unsigned char c;
	while(rbuflen() == 0);	  // Wait...
     548:	0e 94 8e 02 	call	0x51c	; 0x51c <rbuflen>
     54c:	88 23       	and	r24, r24
     54e:	e1 f3       	breq	.-8      	; 0x548 <UART_getchar+0x10>
	c = rbuf[r_out & RMASK];
     550:	80 91 d9 01 	lds	r24, 0x01D9
     554:	88 2f       	mov	r24, r24
     556:	90 e0       	ldi	r25, 0x00	; 0
     558:	8f 71       	andi	r24, 0x1F	; 31
     55a:	90 70       	andi	r25, 0x00	; 0
     55c:	fc 01       	movw	r30, r24
     55e:	e9 54       	subi	r30, 0x49	; 73
     560:	fe 4f       	sbci	r31, 0xFE	; 254
     562:	80 81       	ld	r24, Z
     564:	89 83       	std	Y+1, r24	; 0x01
	r_out++;	
     566:	80 91 d9 01 	lds	r24, 0x01D9
     56a:	8f 5f       	subi	r24, 0xFF	; 255
     56c:	80 93 d9 01 	sts	0x01D9, r24
	return(c);
     570:	89 81       	ldd	r24, Y+1	; 0x01
     572:	88 2f       	mov	r24, r24
     574:	90 e0       	ldi	r25, 0x00	; 0
}
     576:	0f 90       	pop	r0
     578:	0f 90       	pop	r0
     57a:	0f 90       	pop	r0
     57c:	cf 91       	pop	r28
     57e:	df 91       	pop	r29
     580:	08 95       	ret

00000582 <UART_first_init>:

void UART_first_init(void) {
     582:	df 93       	push	r29
     584:	cf 93       	push	r28
     586:	cd b7       	in	r28, 0x3d	; 61
     588:	de b7       	in	r29, 0x3e	; 62
//***********************
// The function fdevopen(..) must contain as parameters the
// corresponding  ..putchar() and  ..getchar() functions, defined before.
//
	UBRR0 = 12;										 		// 4800 BPS
     58a:	e4 ec       	ldi	r30, 0xC4	; 196
     58c:	f0 e0       	ldi	r31, 0x00	; 0
     58e:	8c e0       	ldi	r24, 0x0C	; 12
     590:	90 e0       	ldi	r25, 0x00	; 0
     592:	91 83       	std	Z+1, r25	; 0x01
     594:	80 83       	st	Z, r24
	
	UCSR0B = (1<<RXCIE0)|(1<<TXEN0)|(1<<RXEN0);	// 8 Databits, receive and transmit enabled, receive and transmit complete interrupt enabled
     596:	e1 ec       	ldi	r30, 0xC1	; 193
     598:	f0 e0       	ldi	r31, 0x00	; 0
     59a:	88 e9       	ldi	r24, 0x98	; 152
     59c:	80 83       	st	Z, r24
	UCSR0C = (1<<UCSZ01)|(1<<UCSZ00);
     59e:	e2 ec       	ldi	r30, 0xC2	; 194
     5a0:	f0 e0       	ldi	r31, 0x00	; 0
     5a2:	86 e0       	ldi	r24, 0x06	; 6
     5a4:	80 83       	st	Z, r24
	
	fdevopen(UART_putchar, UART_getchar);
     5a6:	8b e5       	ldi	r24, 0x5B	; 91
     5a8:	92 e0       	ldi	r25, 0x02	; 2
     5aa:	2c e9       	ldi	r18, 0x9C	; 156
     5ac:	32 e0       	ldi	r19, 0x02	; 2
     5ae:	b9 01       	movw	r22, r18
     5b0:	0e 94 ff 0d 	call	0x1bfe	; 0x1bfe <fdevopen>
	sei();											 		// Global interrupt enable
     5b4:	78 94       	sei
}
     5b6:	cf 91       	pop	r28
     5b8:	df 91       	pop	r29
     5ba:	08 95       	ret

000005bc <print_array>:
//*********************************************
//
// Gibt den Temperatur Ringspeicher
// über den UART aus
//
void print_array(){
     5bc:	df 93       	push	r29
     5be:	cf 93       	push	r28
     5c0:	0f 92       	push	r0
     5c2:	cd b7       	in	r28, 0x3d	; 61
     5c4:	de b7       	in	r29, 0x3e	; 62
	uint8_t i;
  	printf("Array:");
     5c6:	00 d0       	rcall	.+0      	; 0x5c8 <print_array+0xc>
     5c8:	ed b7       	in	r30, 0x3d	; 61
     5ca:	fe b7       	in	r31, 0x3e	; 62
     5cc:	31 96       	adiw	r30, 0x01	; 1
     5ce:	81 e0       	ldi	r24, 0x01	; 1
     5d0:	91 e0       	ldi	r25, 0x01	; 1
     5d2:	91 83       	std	Z+1, r25	; 0x01
     5d4:	80 83       	st	Z, r24
     5d6:	0e 94 77 0e 	call	0x1cee	; 0x1cee <printf>
     5da:	0f 90       	pop	r0
     5dc:	0f 90       	pop	r0
	for(i=0;i<6;i++) {
     5de:	19 82       	std	Y+1, r1	; 0x01
     5e0:	1e c0       	rjmp	.+60     	; 0x61e <print_array+0x62>
   	printf(" %i", t_array[i]);
     5e2:	89 81       	ldd	r24, Y+1	; 0x01
     5e4:	88 2f       	mov	r24, r24
     5e6:	90 e0       	ldi	r25, 0x00	; 0
     5e8:	88 0f       	add	r24, r24
     5ea:	99 1f       	adc	r25, r25
     5ec:	fc 01       	movw	r30, r24
     5ee:	e5 55       	subi	r30, 0x55	; 85
     5f0:	fe 4f       	sbci	r31, 0xFE	; 254
     5f2:	20 81       	ld	r18, Z
     5f4:	31 81       	ldd	r19, Z+1	; 0x01
     5f6:	00 d0       	rcall	.+0      	; 0x5f8 <print_array+0x3c>
     5f8:	00 d0       	rcall	.+0      	; 0x5fa <print_array+0x3e>
     5fa:	ed b7       	in	r30, 0x3d	; 61
     5fc:	fe b7       	in	r31, 0x3e	; 62
     5fe:	31 96       	adiw	r30, 0x01	; 1
     600:	88 e0       	ldi	r24, 0x08	; 8
     602:	91 e0       	ldi	r25, 0x01	; 1
     604:	91 83       	std	Z+1, r25	; 0x01
     606:	80 83       	st	Z, r24
     608:	33 83       	std	Z+3, r19	; 0x03
     60a:	22 83       	std	Z+2, r18	; 0x02
     60c:	0e 94 77 0e 	call	0x1cee	; 0x1cee <printf>
     610:	0f 90       	pop	r0
     612:	0f 90       	pop	r0
     614:	0f 90       	pop	r0
     616:	0f 90       	pop	r0
// über den UART aus
//
void print_array(){
	uint8_t i;
  	printf("Array:");
	for(i=0;i<6;i++) {
     618:	89 81       	ldd	r24, Y+1	; 0x01
     61a:	8f 5f       	subi	r24, 0xFF	; 255
     61c:	89 83       	std	Y+1, r24	; 0x01
     61e:	89 81       	ldd	r24, Y+1	; 0x01
     620:	86 30       	cpi	r24, 0x06	; 6
     622:	f8 f2       	brcs	.-66     	; 0x5e2 <print_array+0x26>
   	printf(" %i", t_array[i]);
	}
  	printf("\n");
     624:	8a e0       	ldi	r24, 0x0A	; 10
     626:	90 e0       	ldi	r25, 0x00	; 0
     628:	0e 94 8c 0e 	call	0x1d18	; 0x1d18 <putchar>
}
     62c:	0f 90       	pop	r0
     62e:	cf 91       	pop	r28
     630:	df 91       	pop	r29
     632:	08 95       	ret

00000634 <add_value>:
//
// Fügt einen Meßwert zum Ringspeicher hinzu
// Der Ringspeicher enthält die letzten 6 Werte
// t_array[5] ist der neuste Wert
//
void add_value(uint16_t value) {
     634:	df 93       	push	r29
     636:	cf 93       	push	r28
     638:	00 d0       	rcall	.+0      	; 0x63a <add_value+0x6>
     63a:	0f 92       	push	r0
     63c:	cd b7       	in	r28, 0x3d	; 61
     63e:	de b7       	in	r29, 0x3e	; 62
     640:	9b 83       	std	Y+3, r25	; 0x03
     642:	8a 83       	std	Y+2, r24	; 0x02
	uint8_t i;
	if(t_array[0]==0) {
     644:	80 91 ab 01 	lds	r24, 0x01AB
     648:	90 91 ac 01 	lds	r25, 0x01AC
     64c:	00 97       	sbiw	r24, 0x00	; 0
     64e:	79 f5       	brne	.+94     	; 0x6ae <add_value+0x7a>
		t_array[0]=t_array[1]=t_array[2]=t_array[3]=t_array[4]=t_array[5]=value;
     650:	8a 81       	ldd	r24, Y+2	; 0x02
     652:	9b 81       	ldd	r25, Y+3	; 0x03
     654:	90 93 b6 01 	sts	0x01B6, r25
     658:	80 93 b5 01 	sts	0x01B5, r24
     65c:	80 91 b5 01 	lds	r24, 0x01B5
     660:	90 91 b6 01 	lds	r25, 0x01B6
     664:	90 93 b4 01 	sts	0x01B4, r25
     668:	80 93 b3 01 	sts	0x01B3, r24
     66c:	80 91 b3 01 	lds	r24, 0x01B3
     670:	90 91 b4 01 	lds	r25, 0x01B4
     674:	90 93 b2 01 	sts	0x01B2, r25
     678:	80 93 b1 01 	sts	0x01B1, r24
     67c:	80 91 b1 01 	lds	r24, 0x01B1
     680:	90 91 b2 01 	lds	r25, 0x01B2
     684:	90 93 b0 01 	sts	0x01B0, r25
     688:	80 93 af 01 	sts	0x01AF, r24
     68c:	80 91 af 01 	lds	r24, 0x01AF
     690:	90 91 b0 01 	lds	r25, 0x01B0
     694:	90 93 ae 01 	sts	0x01AE, r25
     698:	80 93 ad 01 	sts	0x01AD, r24
     69c:	80 91 ad 01 	lds	r24, 0x01AD
     6a0:	90 91 ae 01 	lds	r25, 0x01AE
     6a4:	90 93 ac 01 	sts	0x01AC, r25
     6a8:	80 93 ab 01 	sts	0x01AB, r24
     6ac:	59 c0       	rjmp	.+178    	; 0x760 <add_value+0x12c>
	}
	else {
		for(i=0;i<5;i++) {
     6ae:	19 82       	std	Y+1, r1	; 0x01
     6b0:	19 c0       	rjmp	.+50     	; 0x6e4 <add_value+0xb0>
			t_array[i]=t_array[i+1];
     6b2:	89 81       	ldd	r24, Y+1	; 0x01
     6b4:	48 2f       	mov	r20, r24
     6b6:	50 e0       	ldi	r21, 0x00	; 0
     6b8:	89 81       	ldd	r24, Y+1	; 0x01
     6ba:	88 2f       	mov	r24, r24
     6bc:	90 e0       	ldi	r25, 0x00	; 0
     6be:	01 96       	adiw	r24, 0x01	; 1
     6c0:	88 0f       	add	r24, r24
     6c2:	99 1f       	adc	r25, r25
     6c4:	fc 01       	movw	r30, r24
     6c6:	e5 55       	subi	r30, 0x55	; 85
     6c8:	fe 4f       	sbci	r31, 0xFE	; 254
     6ca:	20 81       	ld	r18, Z
     6cc:	31 81       	ldd	r19, Z+1	; 0x01
     6ce:	ca 01       	movw	r24, r20
     6d0:	88 0f       	add	r24, r24
     6d2:	99 1f       	adc	r25, r25
     6d4:	fc 01       	movw	r30, r24
     6d6:	e5 55       	subi	r30, 0x55	; 85
     6d8:	fe 4f       	sbci	r31, 0xFE	; 254
     6da:	31 83       	std	Z+1, r19	; 0x01
     6dc:	20 83       	st	Z, r18
	uint8_t i;
	if(t_array[0]==0) {
		t_array[0]=t_array[1]=t_array[2]=t_array[3]=t_array[4]=t_array[5]=value;
	}
	else {
		for(i=0;i<5;i++) {
     6de:	89 81       	ldd	r24, Y+1	; 0x01
     6e0:	8f 5f       	subi	r24, 0xFF	; 255
     6e2:	89 83       	std	Y+1, r24	; 0x01
     6e4:	89 81       	ldd	r24, Y+1	; 0x01
     6e6:	85 30       	cpi	r24, 0x05	; 5
     6e8:	20 f3       	brcs	.-56     	; 0x6b2 <add_value+0x7e>
			t_array[i]=t_array[i+1];
		}
		t_array[5] = value;
     6ea:	8a 81       	ldd	r24, Y+2	; 0x02
     6ec:	9b 81       	ldd	r25, Y+3	; 0x03
     6ee:	90 93 b6 01 	sts	0x01B6, r25
     6f2:	80 93 b5 01 	sts	0x01B5, r24
		slope2 = (10*(t_array[5]-t_array[4]) + 19*slope2) / 20;
     6f6:	20 91 b5 01 	lds	r18, 0x01B5
     6fa:	30 91 b6 01 	lds	r19, 0x01B6
     6fe:	80 91 b3 01 	lds	r24, 0x01B3
     702:	90 91 b4 01 	lds	r25, 0x01B4
     706:	a9 01       	movw	r20, r18
     708:	48 1b       	sub	r20, r24
     70a:	59 0b       	sbc	r21, r25
     70c:	ca 01       	movw	r24, r20
     70e:	9c 01       	movw	r18, r24
     710:	22 0f       	add	r18, r18
     712:	33 1f       	adc	r19, r19
     714:	c9 01       	movw	r24, r18
     716:	88 0f       	add	r24, r24
     718:	99 1f       	adc	r25, r25
     71a:	88 0f       	add	r24, r24
     71c:	99 1f       	adc	r25, r25
     71e:	b9 01       	movw	r22, r18
     720:	68 0f       	add	r22, r24
     722:	79 1f       	adc	r23, r25
     724:	40 91 a8 01 	lds	r20, 0x01A8
     728:	50 91 a9 01 	lds	r21, 0x01A9
     72c:	ca 01       	movw	r24, r20
     72e:	88 0f       	add	r24, r24
     730:	99 1f       	adc	r25, r25
     732:	9c 01       	movw	r18, r24
     734:	22 0f       	add	r18, r18
     736:	33 1f       	adc	r19, r19
     738:	22 0f       	add	r18, r18
     73a:	33 1f       	adc	r19, r19
     73c:	22 0f       	add	r18, r18
     73e:	33 1f       	adc	r19, r19
     740:	82 0f       	add	r24, r18
     742:	93 1f       	adc	r25, r19
     744:	84 0f       	add	r24, r20
     746:	95 1f       	adc	r25, r21
     748:	86 0f       	add	r24, r22
     74a:	97 1f       	adc	r25, r23
     74c:	24 e1       	ldi	r18, 0x14	; 20
     74e:	30 e0       	ldi	r19, 0x00	; 0
     750:	b9 01       	movw	r22, r18
     752:	0e 94 c7 0c 	call	0x198e	; 0x198e <__divmodhi4>
     756:	cb 01       	movw	r24, r22
     758:	90 93 a9 01 	sts	0x01A9, r25
     75c:	80 93 a8 01 	sts	0x01A8, r24
	}
}
     760:	0f 90       	pop	r0
     762:	0f 90       	pop	r0
     764:	0f 90       	pop	r0
     766:	cf 91       	pop	r28
     768:	df 91       	pop	r29
     76a:	08 95       	ret

0000076c <get_slope>:
//********************************************
//
// Gibt die gemittelte Steigung
// über die letzten 4 Sekunden zurück
//
int16_t get_slope() {
     76c:	df 93       	push	r29
     76e:	cf 93       	push	r28
     770:	00 d0       	rcall	.+0      	; 0x772 <get_slope+0x6>
     772:	00 d0       	rcall	.+0      	; 0x774 <get_slope+0x8>
     774:	00 d0       	rcall	.+0      	; 0x776 <get_slope+0xa>
     776:	cd b7       	in	r28, 0x3d	; 61
     778:	de b7       	in	r29, 0x3e	; 62
	int16_t s1, s2, s3;

	s1 = t_array[5] - t_array[0];
     77a:	20 91 b5 01 	lds	r18, 0x01B5
     77e:	30 91 b6 01 	lds	r19, 0x01B6
     782:	80 91 ab 01 	lds	r24, 0x01AB
     786:	90 91 ac 01 	lds	r25, 0x01AC
     78a:	a9 01       	movw	r20, r18
     78c:	48 1b       	sub	r20, r24
     78e:	59 0b       	sbc	r21, r25
     790:	ca 01       	movw	r24, r20
     792:	9e 83       	std	Y+6, r25	; 0x06
     794:	8d 83       	std	Y+5, r24	; 0x05
	s2 = t_array[4] - t_array[1];
     796:	20 91 b3 01 	lds	r18, 0x01B3
     79a:	30 91 b4 01 	lds	r19, 0x01B4
     79e:	80 91 ad 01 	lds	r24, 0x01AD
     7a2:	90 91 ae 01 	lds	r25, 0x01AE
     7a6:	a9 01       	movw	r20, r18
     7a8:	48 1b       	sub	r20, r24
     7aa:	59 0b       	sbc	r21, r25
     7ac:	ca 01       	movw	r24, r20
     7ae:	9c 83       	std	Y+4, r25	; 0x04
     7b0:	8b 83       	std	Y+3, r24	; 0x03
	s3 = t_array[3] - t_array[2];
     7b2:	20 91 b1 01 	lds	r18, 0x01B1
     7b6:	30 91 b2 01 	lds	r19, 0x01B2
     7ba:	80 91 af 01 	lds	r24, 0x01AF
     7be:	90 91 b0 01 	lds	r25, 0x01B0
     7c2:	a9 01       	movw	r20, r18
     7c4:	48 1b       	sub	r20, r24
     7c6:	59 0b       	sbc	r21, r25
     7c8:	ca 01       	movw	r24, r20
     7ca:	9a 83       	std	Y+2, r25	; 0x02
     7cc:	89 83       	std	Y+1, r24	; 0x01
	
	return ((3*s1+5*s2+15*s3)/9);
     7ce:	2d 81       	ldd	r18, Y+5	; 0x05
     7d0:	3e 81       	ldd	r19, Y+6	; 0x06
     7d2:	c9 01       	movw	r24, r18
     7d4:	88 0f       	add	r24, r24
     7d6:	99 1f       	adc	r25, r25
     7d8:	ac 01       	movw	r20, r24
     7da:	42 0f       	add	r20, r18
     7dc:	53 1f       	adc	r21, r19
     7de:	2b 81       	ldd	r18, Y+3	; 0x03
     7e0:	3c 81       	ldd	r19, Y+4	; 0x04
     7e2:	c9 01       	movw	r24, r18
     7e4:	88 0f       	add	r24, r24
     7e6:	99 1f       	adc	r25, r25
     7e8:	88 0f       	add	r24, r24
     7ea:	99 1f       	adc	r25, r25
     7ec:	82 0f       	add	r24, r18
     7ee:	93 1f       	adc	r25, r19
     7f0:	48 0f       	add	r20, r24
     7f2:	59 1f       	adc	r21, r25
     7f4:	29 81       	ldd	r18, Y+1	; 0x01
     7f6:	3a 81       	ldd	r19, Y+2	; 0x02
     7f8:	c9 01       	movw	r24, r18
     7fa:	88 0f       	add	r24, r24
     7fc:	99 1f       	adc	r25, r25
     7fe:	82 0f       	add	r24, r18
     800:	93 1f       	adc	r25, r19
     802:	9c 01       	movw	r18, r24
     804:	22 0f       	add	r18, r18
     806:	33 1f       	adc	r19, r19
     808:	22 0f       	add	r18, r18
     80a:	33 1f       	adc	r19, r19
     80c:	82 0f       	add	r24, r18
     80e:	93 1f       	adc	r25, r19
     810:	84 0f       	add	r24, r20
     812:	95 1f       	adc	r25, r21
     814:	29 e0       	ldi	r18, 0x09	; 9
     816:	30 e0       	ldi	r19, 0x00	; 0
     818:	b9 01       	movw	r22, r18
     81a:	0e 94 c7 0c 	call	0x198e	; 0x198e <__divmodhi4>
     81e:	cb 01       	movw	r24, r22
}
     820:	26 96       	adiw	r28, 0x06	; 6
     822:	0f b6       	in	r0, 0x3f	; 63
     824:	f8 94       	cli
     826:	de bf       	out	0x3e, r29	; 62
     828:	0f be       	out	0x3f, r0	; 63
     82a:	cd bf       	out	0x3d, r28	; 61
     82c:	cf 91       	pop	r28
     82e:	df 91       	pop	r29
     830:	08 95       	ret

00000832 <get_last_slope>:
//********************************************
//
// Gibt die aktuelle Steigung der Temperatur zurück
// in 0.1°C in 4s
//
int16_t	get_last_slope() {
     832:	df 93       	push	r29
     834:	cf 93       	push	r28
     836:	cd b7       	in	r28, 0x3d	; 61
     838:	de b7       	in	r29, 0x3e	; 62
    return (t_array[5] - t_array[4]);
     83a:	20 91 b5 01 	lds	r18, 0x01B5
     83e:	30 91 b6 01 	lds	r19, 0x01B6
     842:	80 91 b3 01 	lds	r24, 0x01B3
     846:	90 91 b4 01 	lds	r25, 0x01B4
     84a:	a9 01       	movw	r20, r18
     84c:	48 1b       	sub	r20, r24
     84e:	59 0b       	sbc	r21, r25
     850:	ca 01       	movw	r24, r20
}
     852:	cf 91       	pop	r28
     854:	df 91       	pop	r29
     856:	08 95       	ret

00000858 <get_temperature>:
//********************************************
//
// Liest die vom MLX90614 gemessene Temperatur aus
// Rückgabe in 0.1°C, also 215 = 21.5°C
//
uint16_t get_temperature(uint8_t adr) {
     858:	df 93       	push	r29
     85a:	cf 93       	push	r28
     85c:	cd b7       	in	r28, 0x3d	; 61
     85e:	de b7       	in	r29, 0x3e	; 62
     860:	2f 97       	sbiw	r28, 0x0f	; 15
     862:	0f b6       	in	r0, 0x3f	; 63
     864:	f8 94       	cli
     866:	de bf       	out	0x3e, r29	; 62
     868:	0f be       	out	0x3f, r0	; 63
     86a:	cd bf       	out	0x3d, r28	; 61
     86c:	8d 87       	std	Y+13, r24	; 0x0d
	uint16_t raw;
	uint8_t 	ret;
	uint8_t 	lo, hi, pec;
	uint8_t	pec_read[6];

	i2c_start(MLX90614_WRITE);
     86e:	84 eb       	ldi	r24, 0xB4	; 180
     870:	0e 94 15 07 	call	0xe2a	; 0xe2a <i2c_start>
	i2c_write(adr);
     874:	8d 85       	ldd	r24, Y+13	; 0x0d
     876:	0e 94 98 07 	call	0xf30	; 0xf30 <i2c_write>
	
	ret = i2c_rep_start(MLX90614_READ);
     87a:	85 eb       	ldi	r24, 0xB5	; 181
     87c:	0e 94 58 07 	call	0xeb0	; 0xeb0 <i2c_rep_start>
     880:	8c 83       	std	Y+4, r24	; 0x04
	if(ret) {
     882:	8c 81       	ldd	r24, Y+4	; 0x04
     884:	88 23       	and	r24, r24
     886:	19 f0       	breq	.+6      	; 0x88e <get_temperature+0x36>
		i2c_rep_start(MLX90614_READ);
     888:	85 eb       	ldi	r24, 0xB5	; 181
     88a:	0e 94 58 07 	call	0xeb0	; 0xeb0 <i2c_rep_start>
   }

	lo = i2c_read_ack();
     88e:	0e 94 bf 07 	call	0xf7e	; 0xf7e <i2c_read_ack>
     892:	8b 83       	std	Y+3, r24	; 0x03
	hi = i2c_read_ack();
     894:	0e 94 bf 07 	call	0xf7e	; 0xf7e <i2c_read_ack>
     898:	8a 83       	std	Y+2, r24	; 0x02
	raw = (uint16_t)(hi<<8)+lo;
     89a:	8a 81       	ldd	r24, Y+2	; 0x02
     89c:	88 2f       	mov	r24, r24
     89e:	90 e0       	ldi	r25, 0x00	; 0
     8a0:	98 2f       	mov	r25, r24
     8a2:	88 27       	eor	r24, r24
     8a4:	9c 01       	movw	r18, r24
     8a6:	8b 81       	ldd	r24, Y+3	; 0x03
     8a8:	88 2f       	mov	r24, r24
     8aa:	90 e0       	ldi	r25, 0x00	; 0
     8ac:	82 0f       	add	r24, r18
     8ae:	93 1f       	adc	r25, r19
     8b0:	9e 83       	std	Y+6, r25	; 0x06
     8b2:	8d 83       	std	Y+5, r24	; 0x05
	pec = i2c_read_ack();
     8b4:	0e 94 bf 07 	call	0xf7e	; 0xf7e <i2c_read_ack>
     8b8:	89 83       	std	Y+1, r24	; 0x01
	
	i2c_stop();
     8ba:	0e 94 21 09 	call	0x1242	; 0x1242 <i2c_stop>
	
	if(raw & 0x8000) return 0;
     8be:	8d 81       	ldd	r24, Y+5	; 0x05
     8c0:	9e 81       	ldd	r25, Y+6	; 0x06
     8c2:	99 23       	and	r25, r25
     8c4:	1c f4       	brge	.+6      	; 0x8cc <get_temperature+0x74>
     8c6:	1f 86       	std	Y+15, r1	; 0x0f
     8c8:	1e 86       	std	Y+14, r1	; 0x0e
     8ca:	0d c0       	rjmp	.+26     	; 0x8e6 <get_temperature+0x8e>
	
	return (raw / 5 - 2731); 					// 1 = 0.1°C
     8cc:	8d 81       	ldd	r24, Y+5	; 0x05
     8ce:	9e 81       	ldd	r25, Y+6	; 0x06
     8d0:	25 e0       	ldi	r18, 0x05	; 5
     8d2:	30 e0       	ldi	r19, 0x00	; 0
     8d4:	b9 01       	movw	r22, r18
     8d6:	0e 94 b3 0c 	call	0x1966	; 0x1966 <__udivmodhi4>
     8da:	cb 01       	movw	r24, r22
     8dc:	9c 01       	movw	r18, r24
     8de:	2b 5a       	subi	r18, 0xAB	; 171
     8e0:	3a 40       	sbci	r19, 0x0A	; 10
     8e2:	3f 87       	std	Y+15, r19	; 0x0f
     8e4:	2e 87       	std	Y+14, r18	; 0x0e
     8e6:	8e 85       	ldd	r24, Y+14	; 0x0e
     8e8:	9f 85       	ldd	r25, Y+15	; 0x0f
}
     8ea:	2f 96       	adiw	r28, 0x0f	; 15
     8ec:	0f b6       	in	r0, 0x3f	; 63
     8ee:	f8 94       	cli
     8f0:	de bf       	out	0x3e, r29	; 62
     8f2:	0f be       	out	0x3f, r0	; 63
     8f4:	cd bf       	out	0x3d, r28	; 61
     8f6:	cf 91       	pop	r28
     8f8:	df 91       	pop	r29
     8fa:	08 95       	ret

000008fc <set_relais>:

//***************************************************
//
// Relais Ein- und Ausschalen
//
void set_relais(uint8_t on) {
     8fc:	df 93       	push	r29
     8fe:	cf 93       	push	r28
     900:	0f 92       	push	r0
     902:	cd b7       	in	r28, 0x3d	; 61
     904:	de b7       	in	r29, 0x3e	; 62
     906:	89 83       	std	Y+1, r24	; 0x01
	static uint8_t last = 0;
	if(on) {
     908:	89 81       	ldd	r24, Y+1	; 0x01
     90a:	88 23       	and	r24, r24
     90c:	89 f0       	breq	.+34     	; 0x930 <set_relais+0x34>
		if(on != last) printf(">>> Relais ON\n");
     90e:	90 91 a7 01 	lds	r25, 0x01A7
     912:	89 81       	ldd	r24, Y+1	; 0x01
     914:	89 17       	cp	r24, r25
     916:	21 f0       	breq	.+8      	; 0x920 <set_relais+0x24>
     918:	8c e0       	ldi	r24, 0x0C	; 12
     91a:	91 e0       	ldi	r25, 0x01	; 1
     91c:	0e 94 93 0e 	call	0x1d26	; 0x1d26 <puts>
		RELAIS_ON;
     920:	a5 e2       	ldi	r26, 0x25	; 37
     922:	b0 e0       	ldi	r27, 0x00	; 0
     924:	e5 e2       	ldi	r30, 0x25	; 37
     926:	f0 e0       	ldi	r31, 0x00	; 0
     928:	80 81       	ld	r24, Z
     92a:	80 64       	ori	r24, 0x40	; 64
     92c:	8c 93       	st	X, r24
     92e:	10 c0       	rjmp	.+32     	; 0x950 <set_relais+0x54>
	}
	else {
		if(on != last) printf(">>> Relais OFF\n");
     930:	90 91 a7 01 	lds	r25, 0x01A7
     934:	89 81       	ldd	r24, Y+1	; 0x01
     936:	89 17       	cp	r24, r25
     938:	21 f0       	breq	.+8      	; 0x942 <set_relais+0x46>
     93a:	8a e1       	ldi	r24, 0x1A	; 26
     93c:	91 e0       	ldi	r25, 0x01	; 1
     93e:	0e 94 93 0e 	call	0x1d26	; 0x1d26 <puts>
		RELAIS_OFF;
     942:	a5 e2       	ldi	r26, 0x25	; 37
     944:	b0 e0       	ldi	r27, 0x00	; 0
     946:	e5 e2       	ldi	r30, 0x25	; 37
     948:	f0 e0       	ldi	r31, 0x00	; 0
     94a:	80 81       	ld	r24, Z
     94c:	8f 7b       	andi	r24, 0xBF	; 191
     94e:	8c 93       	st	X, r24
	}
	last = on;
     950:	89 81       	ldd	r24, Y+1	; 0x01
     952:	80 93 a7 01 	sts	0x01A7, r24
}
     956:	0f 90       	pop	r0
     958:	cf 91       	pop	r28
     95a:	df 91       	pop	r29
     95c:	08 95       	ret

0000095e <main>:


// ***********************************************************
// Main program
//
int main(void) {
     95e:	df 93       	push	r29
     960:	cf 93       	push	r28
     962:	cd b7       	in	r28, 0x3d	; 61
     964:	de b7       	in	r29, 0x3e	; 62
     966:	67 97       	sbiw	r28, 0x17	; 23
     968:	0f b6       	in	r0, 0x3f	; 63
     96a:	f8 94       	cli
     96c:	de bf       	out	0x3e, r29	; 62
     96e:	0f be       	out	0x3f, r0	; 63
     970:	cd bf       	out	0x3d, r28	; 61
   // Ausgänge definieren
	DDRB = 0x00 | (1<<RELAIS) | (1<<BUZZER);
     972:	e4 e2       	ldi	r30, 0x24	; 36
     974:	f0 e0       	ldi	r31, 0x00	; 0
     976:	80 ec       	ldi	r24, 0xC0	; 192
     978:	80 83       	st	Z, r24
	DDRC = 0x00 | (1<<FLASH_LED);
     97a:	e7 e2       	ldi	r30, 0x27	; 39
     97c:	f0 e0       	ldi	r31, 0x00	; 0
     97e:	88 e0       	ldi	r24, 0x08	; 8
     980:	80 83       	st	Z, r24
	DDRD = 0x00 | (1<<STATUS_LED1) | (1<<STATUS_LED2) | (1<<FLASH_LED);
     982:	ea e2       	ldi	r30, 0x2A	; 42
     984:	f0 e0       	ldi	r31, 0x00	; 0
     986:	88 e1       	ldi	r24, 0x18	; 24
     988:	80 83       	st	Z, r24

	// Ausgänge ausschalten
	PORTB = ~((1<<RELAIS) | (1<<BUZZER));
     98a:	e5 e2       	ldi	r30, 0x25	; 37
     98c:	f0 e0       	ldi	r31, 0x00	; 0
     98e:	8f e3       	ldi	r24, 0x3F	; 63
     990:	80 83       	st	Z, r24
	PORTC = ~(1<<FLASH_LED);
     992:	e8 e2       	ldi	r30, 0x28	; 40
     994:	f0 e0       	ldi	r31, 0x00	; 0
     996:	87 ef       	ldi	r24, 0xF7	; 247
     998:	80 83       	st	Z, r24
	PORTD = ~((1<<STATUS_LED1) | (1<<STATUS_LED2) | (1<<FLASH_LED));
     99a:	eb e2       	ldi	r30, 0x2B	; 43
     99c:	f0 e0       	ldi	r31, 0x00	; 0
     99e:	87 ee       	ldi	r24, 0xE7	; 231
     9a0:	80 83       	st	Z, r24

	// TWI aus Energiesparmode rausnehmen
	PRR != ~(1<<PRTWI);
     9a2:	e4 e6       	ldi	r30, 0x64	; 100
     9a4:	f0 e0       	ldi	r31, 0x00	; 0
     9a6:	20 81       	ld	r18, Z

	// Whatchdog initialisieren
	wdt_reset();
     9a8:	a8 95       	wdr
	wdt_enable(WDTO_8S);
     9aa:	88 e1       	ldi	r24, 0x18	; 24
     9ac:	90 e0       	ldi	r25, 0x00	; 0
     9ae:	29 e2       	ldi	r18, 0x29	; 41
     9b0:	0f b6       	in	r0, 0x3f	; 63
     9b2:	f8 94       	cli
     9b4:	a8 95       	wdr
     9b6:	80 93 60 00 	sts	0x0060, r24
     9ba:	0f be       	out	0x3f, r0	; 63
     9bc:	20 93 60 00 	sts	0x0060, r18
	
	// UART initialisieren
	UART_first_init();
     9c0:	0e 94 c1 02 	call	0x582	; 0x582 <UART_first_init>
	i2c_init();
     9c4:	0e 94 06 07 	call	0xe0c	; 0xe0c <i2c_init>
	
	interval=0;
     9c8:	10 92 00 01 	sts	0x0100, r1
	
	// Timer 2 initialisieren (RTC)
   TCCR2B = (1<<CS22) | (1<<CS21) | (1<<CS20);	// clk/256
     9cc:	e1 eb       	ldi	r30, 0xB1	; 177
     9ce:	f0 e0       	ldi	r31, 0x00	; 0
     9d0:	87 e0       	ldi	r24, 0x07	; 7
     9d2:	80 83       	st	Z, r24
   TIMSK2 = (1<<TOIE2);
     9d4:	e0 e7       	ldi	r30, 0x70	; 112
     9d6:	f0 e0       	ldi	r31, 0x00	; 0
     9d8:	81 e0       	ldi	r24, 0x01	; 1
     9da:	80 83       	st	Z, r24

 	// Timer 0 initialisieren (Blinken)
	TCCR0A = 0;
     9dc:	e4 e4       	ldi	r30, 0x44	; 68
     9de:	f0 e0       	ldi	r31, 0x00	; 0
     9e0:	10 82       	st	Z, r1
	TCCR0B = (0<<CS02) | (1<<CS01) | (1<<CS00);
     9e2:	e5 e4       	ldi	r30, 0x45	; 69
     9e4:	f0 e0       	ldi	r31, 0x00	; 0
     9e6:	83 e0       	ldi	r24, 0x03	; 3
     9e8:	80 83       	st	Z, r24
	TIMSK0 = (1<<TOIE0);
     9ea:	ee e6       	ldi	r30, 0x6E	; 110
     9ec:	f0 e0       	ldi	r31, 0x00	; 0
     9ee:	81 e0       	ldi	r24, 0x01	; 1
     9f0:	80 83       	st	Z, r24
	
	// Timer 1 initialisieren (Entprellen?)
	TCCR1A = 0;
     9f2:	e0 e8       	ldi	r30, 0x80	; 128
     9f4:	f0 e0       	ldi	r31, 0x00	; 0
     9f6:	10 82       	st	Z, r1
	TIMER1_STOP;
     9f8:	e1 e8       	ldi	r30, 0x81	; 129
     9fa:	f0 e0       	ldi	r31, 0x00	; 0
     9fc:	10 82       	st	Z, r1
	TCCR1C = 0;
     9fe:	e2 e8       	ldi	r30, 0x82	; 130
     a00:	f0 e0       	ldi	r31, 0x00	; 0
     a02:	10 82       	st	Z, r1
	TIMSK1 = (1<<TOIE1);
     a04:	ef e6       	ldi	r30, 0x6F	; 111
     a06:	f0 e0       	ldi	r31, 0x00	; 0
     a08:	81 e0       	ldi	r24, 0x01	; 1
     a0a:	80 83       	st	Z, r24
	
	// Interrupt für Taster initialisieren
	EICRA = (1<<ISC01);
     a0c:	e9 e6       	ldi	r30, 0x69	; 105
     a0e:	f0 e0       	ldi	r31, 0x00	; 0
     a10:	82 e0       	ldi	r24, 0x02	; 2
     a12:	80 83       	st	Z, r24
	EIMSK = (1<<INT0);
     a14:	ed e3       	ldi	r30, 0x3D	; 61
     a16:	f0 e0       	ldi	r31, 0x00	; 0
     a18:	81 e0       	ldi	r24, 0x01	; 1
     a1a:	80 83       	st	Z, r24
	

	printf("\nStart\n");
     a1c:	89 e2       	ldi	r24, 0x29	; 41
     a1e:	91 e0       	ldi	r25, 0x01	; 1
     a20:	0e 94 93 0e 	call	0x1d26	; 0x1d26 <puts>
	STATUS_LED1_ON;		// grüne LED ein
     a24:	ab e2       	ldi	r26, 0x2B	; 43
     a26:	b0 e0       	ldi	r27, 0x00	; 0
     a28:	eb e2       	ldi	r30, 0x2B	; 43
     a2a:	f0 e0       	ldi	r31, 0x00	; 0
     a2c:	80 81       	ld	r24, Z
     a2e:	80 61       	ori	r24, 0x10	; 16
     a30:	8c 93       	st	X, r24
	STATUS_LED2_OFF;		// rote LED aus
     a32:	ab e2       	ldi	r26, 0x2B	; 43
     a34:	b0 e0       	ldi	r27, 0x00	; 0
     a36:	eb e2       	ldi	r30, 0x2B	; 43
     a38:	f0 e0       	ldi	r31, 0x00	; 0
     a3a:	80 81       	ld	r24, Z
     a3c:	87 7f       	andi	r24, 0xF7	; 247
     a3e:	8c 93       	st	X, r24
	set_relais(0);			// Relais aus
     a40:	80 e0       	ldi	r24, 0x00	; 0
     a42:	0e 94 7e 04 	call	0x8fc	; 0x8fc <set_relais>
	mode = MODE_OFF;
     a46:	10 92 d8 01 	sts	0x01D8, r1
	
	int16_t 	temp, temp_sum = 0;
     a4a:	1e 86       	std	Y+14, r1	; 0x0e
     a4c:	1d 86       	std	Y+13, r1	; 0x0d
	int16_t	slope_raw, slope;
	uint8_t	count=0;
     a4e:	18 86       	std	Y+8, r1	; 0x08
	uint8_t  last_interval = 0xff;
     a50:	8f ef       	ldi	r24, 0xFF	; 255
     a52:	8f 83       	std	Y+7, r24	; 0x07
	uint8_t	startup = 3;
     a54:	83 e0       	ldi	r24, 0x03	; 3
     a56:	8e 83       	std	Y+6, r24	; 0x06
	uint8_t	on_counter = 0;
     a58:	1d 82       	std	Y+5, r1	; 0x05
	int16_t	factor;
	int16_t	integral = 0;
     a5a:	1a 82       	std	Y+2, r1	; 0x02
     a5c:	19 82       	std	Y+1, r1	; 0x01
		
	// Interrupts aktivieren
	sei();
     a5e:	78 94       	sei

   while(1) {
   	if(!(interval < 16)) { 					// Alle 16x (alle 4 Sekunden) Temperatur checken
     a60:	80 91 00 01 	lds	r24, 0x0100
     a64:	80 31       	cpi	r24, 0x10	; 16
     a66:	0c f4       	brge	.+2      	; 0xa6a <main+0x10c>
     a68:	5f c1       	rjmp	.+702    	; 0xd28 <main+0x3ca>
   		wdt_reset();                  	// Whatchdog zurücksetzen
     a6a:	a8 95       	wdr
   		interval=0;
     a6c:	10 92 00 01 	sts	0x0100, r1
   		count=0;
     a70:	18 86       	std	Y+8, r1	; 0x08

			temp = temp_sum >> 4;				// Mittelwert der 16 Messungen ermitteln
     a72:	8d 85       	ldd	r24, Y+13	; 0x0d
     a74:	9e 85       	ldd	r25, Y+14	; 0x0e
     a76:	95 95       	asr	r25
     a78:	87 95       	ror	r24
     a7a:	95 95       	asr	r25
     a7c:	87 95       	ror	r24
     a7e:	95 95       	asr	r25
     a80:	87 95       	ror	r24
     a82:	95 95       	asr	r25
     a84:	87 95       	ror	r24
     a86:	98 8b       	std	Y+16, r25	; 0x10
     a88:	8f 87       	std	Y+15, r24	; 0x0f
			temp_sum = 0;
     a8a:	1e 86       	std	Y+14, r1	; 0x0e
     a8c:	1d 86       	std	Y+13, r1	; 0x0d
	      //printf("Temp: %i\n", temp);
	      if(temp==0) {
     a8e:	8f 85       	ldd	r24, Y+15	; 0x0f
     a90:	98 89       	ldd	r25, Y+16	; 0x10
     a92:	00 97       	sbiw	r24, 0x00	; 0
     a94:	69 f4       	brne	.+26     	; 0xab0 <main+0x152>
	      	// error!
	      	printf("Error Temp=0");
     a96:	00 d0       	rcall	.+0      	; 0xa98 <main+0x13a>
     a98:	ed b7       	in	r30, 0x3d	; 61
     a9a:	fe b7       	in	r31, 0x3e	; 62
     a9c:	31 96       	adiw	r30, 0x01	; 1
     a9e:	80 e3       	ldi	r24, 0x30	; 48
     aa0:	91 e0       	ldi	r25, 0x01	; 1
     aa2:	91 83       	std	Z+1, r25	; 0x01
     aa4:	80 83       	st	Z, r24
     aa6:	0e 94 77 0e 	call	0x1cee	; 0x1cee <printf>
     aaa:	0f 90       	pop	r0
     aac:	0f 90       	pop	r0
     aae:	0b c1       	rjmp	.+534    	; 0xcc6 <main+0x368>
	      }
	      else {
				if (startup>0) {
     ab0:	8e 81       	ldd	r24, Y+6	; 0x06
     ab2:	88 23       	and	r24, r24
     ab4:	f1 f0       	breq	.+60     	; 0xaf2 <main+0x194>
					// wird nur beim ersten Durchlauf, direkt nach Startup ausgeführt
					printf("Startup %i ", startup);
     ab6:	8e 81       	ldd	r24, Y+6	; 0x06
     ab8:	28 2f       	mov	r18, r24
     aba:	30 e0       	ldi	r19, 0x00	; 0
     abc:	00 d0       	rcall	.+0      	; 0xabe <main+0x160>
     abe:	00 d0       	rcall	.+0      	; 0xac0 <main+0x162>
     ac0:	ed b7       	in	r30, 0x3d	; 61
     ac2:	fe b7       	in	r31, 0x3e	; 62
     ac4:	31 96       	adiw	r30, 0x01	; 1
     ac6:	8d e3       	ldi	r24, 0x3D	; 61
     ac8:	91 e0       	ldi	r25, 0x01	; 1
     aca:	91 83       	std	Z+1, r25	; 0x01
     acc:	80 83       	st	Z, r24
     ace:	33 83       	std	Z+3, r19	; 0x03
     ad0:	22 83       	std	Z+2, r18	; 0x02
     ad2:	0e 94 77 0e 	call	0x1cee	; 0x1cee <printf>
     ad6:	0f 90       	pop	r0
     ad8:	0f 90       	pop	r0
     ada:	0f 90       	pop	r0
     adc:	0f 90       	pop	r0
					startup--;
     ade:	8e 81       	ldd	r24, Y+6	; 0x06
     ae0:	81 50       	subi	r24, 0x01	; 1
     ae2:	8e 83       	std	Y+6, r24	; 0x06
					temp = get_temperature(ADR_T_OBJ1);
     ae4:	87 e0       	ldi	r24, 0x07	; 7
     ae6:	0e 94 2c 04 	call	0x858	; 0x858 <get_temperature>
     aea:	98 8b       	std	Y+16, r25	; 0x10
     aec:	8f 87       	std	Y+15, r24	; 0x0f
					slope = 0;
     aee:	1a 86       	std	Y+10, r1	; 0x0a
     af0:	19 86       	std	Y+9, r1	; 0x09
				}
   	   	printf("Temp: %i, ", temp);
     af2:	00 d0       	rcall	.+0      	; 0xaf4 <main+0x196>
     af4:	00 d0       	rcall	.+0      	; 0xaf6 <main+0x198>
     af6:	ed b7       	in	r30, 0x3d	; 61
     af8:	fe b7       	in	r31, 0x3e	; 62
     afa:	31 96       	adiw	r30, 0x01	; 1
     afc:	89 e4       	ldi	r24, 0x49	; 73
     afe:	91 e0       	ldi	r25, 0x01	; 1
     b00:	91 83       	std	Z+1, r25	; 0x01
     b02:	80 83       	st	Z, r24
     b04:	8f 85       	ldd	r24, Y+15	; 0x0f
     b06:	98 89       	ldd	r25, Y+16	; 0x10
     b08:	93 83       	std	Z+3, r25	; 0x03
     b0a:	82 83       	std	Z+2, r24	; 0x02
     b0c:	0e 94 77 0e 	call	0x1cee	; 0x1cee <printf>
     b10:	0f 90       	pop	r0
     b12:	0f 90       	pop	r0
     b14:	0f 90       	pop	r0
     b16:	0f 90       	pop	r0
   	   	add_value(temp);									// Neue Temperatur zu Array hinzufügen
     b18:	8f 85       	ldd	r24, Y+15	; 0x0f
     b1a:	98 89       	ldd	r25, Y+16	; 0x10
     b1c:	0e 94 1a 03 	call	0x634	; 0x634 <add_value>
   	   	slope_raw = get_slope();						// Aktuelle Steigung ermitteln
     b20:	0e 94 b6 03 	call	0x76c	; 0x76c <get_slope>
     b24:	9c 87       	std	Y+12, r25	; 0x0c
     b26:	8b 87       	std	Y+11, r24	; 0x0b
   	   	
   	   	factor = (temp - 620) / -25;					// Fakort ermitteln
     b28:	8f 85       	ldd	r24, Y+15	; 0x0f
     b2a:	98 89       	ldd	r25, Y+16	; 0x10
     b2c:	8c 56       	subi	r24, 0x6C	; 108
     b2e:	92 40       	sbci	r25, 0x02	; 2
     b30:	27 ee       	ldi	r18, 0xE7	; 231
     b32:	3f ef       	ldi	r19, 0xFF	; 255
     b34:	b9 01       	movw	r22, r18
     b36:	0e 94 c7 0c 	call	0x198e	; 0x198e <__divmodhi4>
     b3a:	cb 01       	movw	r24, r22
     b3c:	9c 83       	std	Y+4, r25	; 0x04
     b3e:	8b 83       	std	Y+3, r24	; 0x03
   	   	if(factor < 0) factor = 0;
     b40:	8b 81       	ldd	r24, Y+3	; 0x03
     b42:	9c 81       	ldd	r25, Y+4	; 0x04
     b44:	99 23       	and	r25, r25
     b46:	14 f4       	brge	.+4      	; 0xb4c <main+0x1ee>
     b48:	1c 82       	std	Y+4, r1	; 0x04
     b4a:	1b 82       	std	Y+3, r1	; 0x03
   	   	   	   	
				if(slope_raw > factor) { 						// "Steigungsintegral"
     b4c:	2b 85       	ldd	r18, Y+11	; 0x0b
     b4e:	3c 85       	ldd	r19, Y+12	; 0x0c
     b50:	8b 81       	ldd	r24, Y+3	; 0x03
     b52:	9c 81       	ldd	r25, Y+4	; 0x04
     b54:	82 17       	cp	r24, r18
     b56:	93 07       	cpc	r25, r19
     b58:	ac f4       	brge	.+42     	; 0xb84 <main+0x226>
					integral = 8*(integral + slope_raw) / factor;
     b5a:	29 81       	ldd	r18, Y+1	; 0x01
     b5c:	3a 81       	ldd	r19, Y+2	; 0x02
     b5e:	8b 85       	ldd	r24, Y+11	; 0x0b
     b60:	9c 85       	ldd	r25, Y+12	; 0x0c
     b62:	82 0f       	add	r24, r18
     b64:	93 1f       	adc	r25, r19
     b66:	88 0f       	add	r24, r24
     b68:	99 1f       	adc	r25, r25
     b6a:	88 0f       	add	r24, r24
     b6c:	99 1f       	adc	r25, r25
     b6e:	88 0f       	add	r24, r24
     b70:	99 1f       	adc	r25, r25
     b72:	2b 81       	ldd	r18, Y+3	; 0x03
     b74:	3c 81       	ldd	r19, Y+4	; 0x04
     b76:	b9 01       	movw	r22, r18
     b78:	0e 94 c7 0c 	call	0x198e	; 0x198e <__divmodhi4>
     b7c:	cb 01       	movw	r24, r22
     b7e:	9a 83       	std	Y+2, r25	; 0x02
     b80:	89 83       	std	Y+1, r24	; 0x01
     b82:	16 c0       	rjmp	.+44     	; 0xbb0 <main+0x252>
				}
				else {
					integral = integral / 4;
     b84:	89 81       	ldd	r24, Y+1	; 0x01
     b86:	9a 81       	ldd	r25, Y+2	; 0x02
     b88:	9d 8b       	std	Y+21, r25	; 0x15
     b8a:	8c 8b       	std	Y+20, r24	; 0x14
     b8c:	8c 89       	ldd	r24, Y+20	; 0x14
     b8e:	9d 89       	ldd	r25, Y+21	; 0x15
     b90:	99 23       	and	r25, r25
     b92:	34 f4       	brge	.+12     	; 0xba0 <main+0x242>
     b94:	2c 89       	ldd	r18, Y+20	; 0x14
     b96:	3d 89       	ldd	r19, Y+21	; 0x15
     b98:	2d 5f       	subi	r18, 0xFD	; 253
     b9a:	3f 4f       	sbci	r19, 0xFF	; 255
     b9c:	3d 8b       	std	Y+21, r19	; 0x15
     b9e:	2c 8b       	std	Y+20, r18	; 0x14
     ba0:	8c 89       	ldd	r24, Y+20	; 0x14
     ba2:	9d 89       	ldd	r25, Y+21	; 0x15
     ba4:	95 95       	asr	r25
     ba6:	87 95       	ror	r24
     ba8:	95 95       	asr	r25
     baa:	87 95       	ror	r24
     bac:	9a 83       	std	Y+2, r25	; 0x02
     bae:	89 83       	std	Y+1, r24	; 0x01
				}
				
				slope = (31*slope + 10*slope_raw)/32; 		// Steigung dämpfen
     bb0:	29 85       	ldd	r18, Y+9	; 0x09
     bb2:	3a 85       	ldd	r19, Y+10	; 0x0a
     bb4:	8f e1       	ldi	r24, 0x1F	; 31
     bb6:	90 e0       	ldi	r25, 0x00	; 0
     bb8:	28 9f       	mul	r18, r24
     bba:	a0 01       	movw	r20, r0
     bbc:	29 9f       	mul	r18, r25
     bbe:	50 0d       	add	r21, r0
     bc0:	38 9f       	mul	r19, r24
     bc2:	50 0d       	add	r21, r0
     bc4:	11 24       	eor	r1, r1
     bc6:	8b 85       	ldd	r24, Y+11	; 0x0b
     bc8:	9c 85       	ldd	r25, Y+12	; 0x0c
     bca:	9c 01       	movw	r18, r24
     bcc:	22 0f       	add	r18, r18
     bce:	33 1f       	adc	r19, r19
     bd0:	c9 01       	movw	r24, r18
     bd2:	88 0f       	add	r24, r24
     bd4:	99 1f       	adc	r25, r25
     bd6:	88 0f       	add	r24, r24
     bd8:	99 1f       	adc	r25, r25
     bda:	82 0f       	add	r24, r18
     bdc:	93 1f       	adc	r25, r19
     bde:	84 0f       	add	r24, r20
     be0:	95 1f       	adc	r25, r21
     be2:	9f 8b       	std	Y+23, r25	; 0x17
     be4:	8e 8b       	std	Y+22, r24	; 0x16
     be6:	8e 89       	ldd	r24, Y+22	; 0x16
     be8:	9f 89       	ldd	r25, Y+23	; 0x17
     bea:	99 23       	and	r25, r25
     bec:	34 f4       	brge	.+12     	; 0xbfa <main+0x29c>
     bee:	2e 89       	ldd	r18, Y+22	; 0x16
     bf0:	3f 89       	ldd	r19, Y+23	; 0x17
     bf2:	21 5e       	subi	r18, 0xE1	; 225
     bf4:	3f 4f       	sbci	r19, 0xFF	; 255
     bf6:	3f 8b       	std	Y+23, r19	; 0x17
     bf8:	2e 8b       	std	Y+22, r18	; 0x16
     bfa:	8e 89       	ldd	r24, Y+22	; 0x16
     bfc:	9f 89       	ldd	r25, Y+23	; 0x17
     bfe:	95 95       	asr	r25
     c00:	87 95       	ror	r24
     c02:	95 95       	asr	r25
     c04:	87 95       	ror	r24
     c06:	95 95       	asr	r25
     c08:	87 95       	ror	r24
     c0a:	95 95       	asr	r25
     c0c:	87 95       	ror	r24
     c0e:	95 95       	asr	r25
     c10:	87 95       	ror	r24
     c12:	9a 87       	std	Y+10, r25	; 0x0a
     c14:	89 87       	std	Y+9, r24	; 0x09
	   	   }
   	   	printf("slope_raw: %i, slope: %i ", slope_raw, slope);
     	   	printf("Ambient: %i\n", get_temperature(ADR_T_A));
*/				

   	   	printf("sl_raw: %i, sl: %i, f: %i, int: %i\n", slope_raw, slope, factor, integral);
     c16:	8d b7       	in	r24, 0x3d	; 61
     c18:	9e b7       	in	r25, 0x3e	; 62
     c1a:	0a 97       	sbiw	r24, 0x0a	; 10
     c1c:	0f b6       	in	r0, 0x3f	; 63
     c1e:	f8 94       	cli
     c20:	9e bf       	out	0x3e, r25	; 62
     c22:	0f be       	out	0x3f, r0	; 63
     c24:	8d bf       	out	0x3d, r24	; 61
     c26:	ed b7       	in	r30, 0x3d	; 61
     c28:	fe b7       	in	r31, 0x3e	; 62
     c2a:	31 96       	adiw	r30, 0x01	; 1
     c2c:	84 e5       	ldi	r24, 0x54	; 84
     c2e:	91 e0       	ldi	r25, 0x01	; 1
     c30:	91 83       	std	Z+1, r25	; 0x01
     c32:	80 83       	st	Z, r24
     c34:	8b 85       	ldd	r24, Y+11	; 0x0b
     c36:	9c 85       	ldd	r25, Y+12	; 0x0c
     c38:	93 83       	std	Z+3, r25	; 0x03
     c3a:	82 83       	std	Z+2, r24	; 0x02
     c3c:	89 85       	ldd	r24, Y+9	; 0x09
     c3e:	9a 85       	ldd	r25, Y+10	; 0x0a
     c40:	95 83       	std	Z+5, r25	; 0x05
     c42:	84 83       	std	Z+4, r24	; 0x04
     c44:	8b 81       	ldd	r24, Y+3	; 0x03
     c46:	9c 81       	ldd	r25, Y+4	; 0x04
     c48:	97 83       	std	Z+7, r25	; 0x07
     c4a:	86 83       	std	Z+6, r24	; 0x06
     c4c:	89 81       	ldd	r24, Y+1	; 0x01
     c4e:	9a 81       	ldd	r25, Y+2	; 0x02
     c50:	91 87       	std	Z+9, r25	; 0x09
     c52:	80 87       	std	Z+8, r24	; 0x08
     c54:	0e 94 77 0e 	call	0x1cee	; 0x1cee <printf>
     c58:	2d b7       	in	r18, 0x3d	; 61
     c5a:	3e b7       	in	r19, 0x3e	; 62
     c5c:	26 5f       	subi	r18, 0xF6	; 246
     c5e:	3f 4f       	sbci	r19, 0xFF	; 255
     c60:	0f b6       	in	r0, 0x3f	; 63
     c62:	f8 94       	cli
     c64:	3e bf       	out	0x3e, r19	; 62
     c66:	0f be       	out	0x3f, r0	; 63
     c68:	2d bf       	out	0x3d, r18	; 61

				if( (get_last_slope() >= 0)
     c6a:	0e 94 19 04 	call	0x832	; 0x832 <get_last_slope>
     c6e:	99 23       	and	r25, r25
     c70:	4c f1       	brlt	.+82     	; 0xcc4 <main+0x366>
     c72:	89 85       	ldd	r24, Y+9	; 0x09
     c74:	9a 85       	ldd	r25, Y+10	; 0x0a
     c76:	8e 32       	cpi	r24, 0x2E	; 46
     c78:	91 05       	cpc	r25, r1
     c7a:	34 f4       	brge	.+12     	; 0xc88 <main+0x32a>
     c7c:	89 81       	ldd	r24, Y+1	; 0x01
     c7e:	9a 81       	ldd	r25, Y+2	; 0x02
     c80:	31 e0       	ldi	r19, 0x01	; 1
     c82:	85 3f       	cpi	r24, 0xF5	; 245
     c84:	93 07       	cpc	r25, r19
     c86:	f4 f0       	brlt	.+60     	; 0xcc4 <main+0x366>
				 && ((slope > 45) || (integral > 500))) {
					on_counter++;
     c88:	8d 81       	ldd	r24, Y+5	; 0x05
     c8a:	8f 5f       	subi	r24, 0xFF	; 255
     c8c:	8d 83       	std	Y+5, r24	; 0x05
		   		printf("On-Counter: %i; \n", on_counter);
     c8e:	8d 81       	ldd	r24, Y+5	; 0x05
     c90:	28 2f       	mov	r18, r24
     c92:	30 e0       	ldi	r19, 0x00	; 0
     c94:	00 d0       	rcall	.+0      	; 0xc96 <main+0x338>
     c96:	00 d0       	rcall	.+0      	; 0xc98 <main+0x33a>
     c98:	ed b7       	in	r30, 0x3d	; 61
     c9a:	fe b7       	in	r31, 0x3e	; 62
     c9c:	31 96       	adiw	r30, 0x01	; 1
     c9e:	88 e7       	ldi	r24, 0x78	; 120
     ca0:	91 e0       	ldi	r25, 0x01	; 1
     ca2:	91 83       	std	Z+1, r25	; 0x01
     ca4:	80 83       	st	Z, r24
     ca6:	33 83       	std	Z+3, r19	; 0x03
     ca8:	22 83       	std	Z+2, r18	; 0x02
     caa:	0e 94 77 0e 	call	0x1cee	; 0x1cee <printf>
     cae:	0f 90       	pop	r0
     cb0:	0f 90       	pop	r0
     cb2:	0f 90       	pop	r0
     cb4:	0f 90       	pop	r0
	   			if(on_counter > 1) off_counter = OFF_COUNTER+1;
     cb6:	8d 81       	ldd	r24, Y+5	; 0x05
     cb8:	82 30       	cpi	r24, 0x02	; 2
     cba:	28 f0       	brcs	.+10     	; 0xcc6 <main+0x368>
     cbc:	83 e0       	ldi	r24, 0x03	; 3
     cbe:	80 93 a4 01 	sts	0x01A4, r24
     cc2:	01 c0       	rjmp	.+2      	; 0xcc6 <main+0x368>
				}			
				else {
					on_counter = 0;
     cc4:	1d 82       	std	Y+5, r1	; 0x05
		   		if(on_counter > 3) off_counter = OFF_COUNTER+1;
   			}
*/
   	   }

   		if(off_counter) {
     cc6:	80 91 a4 01 	lds	r24, 0x01A4
     cca:	88 23       	and	r24, r24
     ccc:	11 f1       	breq	.+68     	; 0xd12 <main+0x3b4>
   			// Protection Counter läuft
  				off_counter--;
     cce:	80 91 a4 01 	lds	r24, 0x01A4
     cd2:	81 50       	subi	r24, 0x01	; 1
     cd4:	80 93 a4 01 	sts	0x01A4, r24
  				if(mode == MODE_ON) mode = MODE_TEMP_PROT;
     cd8:	80 91 d8 01 	lds	r24, 0x01D8
     cdc:	81 30       	cpi	r24, 0x01	; 1
     cde:	19 f4       	brne	.+6      	; 0xce6 <main+0x388>
     ce0:	83 e0       	ldi	r24, 0x03	; 3
     ce2:	80 93 d8 01 	sts	0x01D8, r24
				printf("Off-Counter: %i; \n", off_counter);
     ce6:	80 91 a4 01 	lds	r24, 0x01A4
     cea:	28 2f       	mov	r18, r24
     cec:	30 e0       	ldi	r19, 0x00	; 0
     cee:	00 d0       	rcall	.+0      	; 0xcf0 <main+0x392>
     cf0:	00 d0       	rcall	.+0      	; 0xcf2 <main+0x394>
     cf2:	ed b7       	in	r30, 0x3d	; 61
     cf4:	fe b7       	in	r31, 0x3e	; 62
     cf6:	31 96       	adiw	r30, 0x01	; 1
     cf8:	8a e8       	ldi	r24, 0x8A	; 138
     cfa:	91 e0       	ldi	r25, 0x01	; 1
     cfc:	91 83       	std	Z+1, r25	; 0x01
     cfe:	80 83       	st	Z, r24
     d00:	33 83       	std	Z+3, r19	; 0x03
     d02:	22 83       	std	Z+2, r18	; 0x02
     d04:	0e 94 77 0e 	call	0x1cee	; 0x1cee <printf>
     d08:	0f 90       	pop	r0
     d0a:	0f 90       	pop	r0
     d0c:	0f 90       	pop	r0
     d0e:	0f 90       	pop	r0
     d10:	2a c0       	rjmp	.+84     	; 0xd66 <main+0x408>
   		}
   		else {
   			if(mode == MODE_TEMP_PROT) {
     d12:	80 91 d8 01 	lds	r24, 0x01D8
     d16:	83 30       	cpi	r24, 0x03	; 3
     d18:	31 f5       	brne	.+76     	; 0xd66 <main+0x408>
   				slope = 0;
     d1a:	1a 86       	std	Y+10, r1	; 0x0a
     d1c:	19 86       	std	Y+9, r1	; 0x09
   				integral = 0;
     d1e:	1a 82       	std	Y+2, r1	; 0x02
     d20:	19 82       	std	Y+1, r1	; 0x01
   				mode = MODE_OFF;
     d22:	10 92 d8 01 	sts	0x01D8, r1
     d26:	1f c0       	rjmp	.+62     	; 0xd66 <main+0x408>
   			}
   		}
		}
		else if(interval != last_interval) {
     d28:	80 91 00 01 	lds	r24, 0x0100
     d2c:	28 2f       	mov	r18, r24
     d2e:	33 27       	eor	r19, r19
     d30:	27 fd       	sbrc	r18, 7
     d32:	30 95       	com	r19
     d34:	8f 81       	ldd	r24, Y+7	; 0x07
     d36:	88 2f       	mov	r24, r24
     d38:	90 e0       	ldi	r25, 0x00	; 0
     d3a:	28 17       	cp	r18, r24
     d3c:	39 07       	cpc	r19, r25
     d3e:	99 f0       	breq	.+38     	; 0xd66 <main+0x408>
			// In jedem Interval 1x die Temperatur abrufen
			// und für den Mittelwert aufsummieren
   		last_interval = interval;
     d40:	80 91 00 01 	lds	r24, 0x0100
     d44:	8f 83       	std	Y+7, r24	; 0x07
    		if(count<16) {
     d46:	88 85       	ldd	r24, Y+8	; 0x08
     d48:	80 31       	cpi	r24, 0x10	; 16
     d4a:	68 f4       	brcc	.+26     	; 0xd66 <main+0x408>
	   		count++;
     d4c:	88 85       	ldd	r24, Y+8	; 0x08
     d4e:	8f 5f       	subi	r24, 0xFF	; 255
     d50:	88 87       	std	Y+8, r24	; 0x08
   			// Messwerte für den Mittelwert aufsummieren
   			temp_sum += get_temperature(ADR_T_OBJ1);
     d52:	87 e0       	ldi	r24, 0x07	; 7
     d54:	0e 94 2c 04 	call	0x858	; 0x858 <get_temperature>
     d58:	9c 01       	movw	r18, r24
     d5a:	8d 85       	ldd	r24, Y+13	; 0x0d
     d5c:	9e 85       	ldd	r25, Y+14	; 0x0e
     d5e:	82 0f       	add	r24, r18
     d60:	93 1f       	adc	r25, r19
     d62:	9e 87       	std	Y+14, r25	; 0x0e
     d64:	8d 87       	std	Y+13, r24	; 0x0d
   		}
   	}

		// Je nach Mode Relais und LEDs setzen
		switch(mode) {
     d66:	80 91 d8 01 	lds	r24, 0x01D8
     d6a:	28 2f       	mov	r18, r24
     d6c:	30 e0       	ldi	r19, 0x00	; 0
     d6e:	3a 8b       	std	Y+18, r19	; 0x12
     d70:	29 8b       	std	Y+17, r18	; 0x11
     d72:	89 89       	ldd	r24, Y+17	; 0x11
     d74:	9a 89       	ldd	r25, Y+18	; 0x12
     d76:	81 30       	cpi	r24, 0x01	; 1
     d78:	91 05       	cpc	r25, r1
     d7a:	e9 f0       	breq	.+58     	; 0xdb6 <main+0x458>
     d7c:	29 89       	ldd	r18, Y+17	; 0x11
     d7e:	3a 89       	ldd	r19, Y+18	; 0x12
     d80:	23 30       	cpi	r18, 0x03	; 3
     d82:	31 05       	cpc	r19, r1
     d84:	51 f1       	breq	.+84     	; 0xdda <main+0x47c>
     d86:	89 89       	ldd	r24, Y+17	; 0x11
     d88:	9a 89       	ldd	r25, Y+18	; 0x12
     d8a:	00 97       	sbiw	r24, 0x00	; 0
     d8c:	e1 f5       	brne	.+120    	; 0xe06 <main+0x4a8>
		case MODE_OFF:
			set_relais(0);
     d8e:	80 e0       	ldi	r24, 0x00	; 0
     d90:	0e 94 7e 04 	call	0x8fc	; 0x8fc <set_relais>
			STATUS_LED1_ON;      // Grün
     d94:	ab e2       	ldi	r26, 0x2B	; 43
     d96:	b0 e0       	ldi	r27, 0x00	; 0
     d98:	eb e2       	ldi	r30, 0x2B	; 43
     d9a:	f0 e0       	ldi	r31, 0x00	; 0
     d9c:	80 81       	ld	r24, Z
     d9e:	80 61       	ori	r24, 0x10	; 16
     da0:	8c 93       	st	X, r24
			STATUS_LED2_OFF;
     da2:	ab e2       	ldi	r26, 0x2B	; 43
     da4:	b0 e0       	ldi	r27, 0x00	; 0
     da6:	eb e2       	ldi	r30, 0x2B	; 43
     da8:	f0 e0       	ldi	r31, 0x00	; 0
     daa:	80 81       	ld	r24, Z
     dac:	87 7f       	andi	r24, 0xF7	; 247
     dae:	8c 93       	st	X, r24
			off_counter = 0;
     db0:	10 92 a4 01 	sts	0x01A4, r1
     db4:	55 ce       	rjmp	.-854    	; 0xa60 <main+0x102>
			break;
		case MODE_ON:
			set_relais(1);
     db6:	81 e0       	ldi	r24, 0x01	; 1
     db8:	0e 94 7e 04 	call	0x8fc	; 0x8fc <set_relais>
			STATUS_LED1_ON;     // Orange
     dbc:	ab e2       	ldi	r26, 0x2B	; 43
     dbe:	b0 e0       	ldi	r27, 0x00	; 0
     dc0:	eb e2       	ldi	r30, 0x2B	; 43
     dc2:	f0 e0       	ldi	r31, 0x00	; 0
     dc4:	80 81       	ld	r24, Z
     dc6:	80 61       	ori	r24, 0x10	; 16
     dc8:	8c 93       	st	X, r24
			STATUS_LED2_ON;
     dca:	ab e2       	ldi	r26, 0x2B	; 43
     dcc:	b0 e0       	ldi	r27, 0x00	; 0
     dce:	eb e2       	ldi	r30, 0x2B	; 43
     dd0:	f0 e0       	ldi	r31, 0x00	; 0
     dd2:	80 81       	ld	r24, Z
     dd4:	88 60       	ori	r24, 0x08	; 8
     dd6:	8c 93       	st	X, r24
     dd8:	43 ce       	rjmp	.-890    	; 0xa60 <main+0x102>
			break;
		case MODE_TEMP_PROT:
			set_relais(0);
     dda:	80 e0       	ldi	r24, 0x00	; 0
     ddc:	0e 94 7e 04 	call	0x8fc	; 0x8fc <set_relais>
			STATUS_LED1_OFF;
     de0:	ab e2       	ldi	r26, 0x2B	; 43
     de2:	b0 e0       	ldi	r27, 0x00	; 0
     de4:	eb e2       	ldi	r30, 0x2B	; 43
     de6:	f0 e0       	ldi	r31, 0x00	; 0
     de8:	80 81       	ld	r24, Z
     dea:	8f 7e       	andi	r24, 0xEF	; 239
     dec:	8c 93       	st	X, r24
			STATUS_LED2_ON;      // Rot
     dee:	ab e2       	ldi	r26, 0x2B	; 43
     df0:	b0 e0       	ldi	r27, 0x00	; 0
     df2:	eb e2       	ldi	r30, 0x2B	; 43
     df4:	f0 e0       	ldi	r31, 0x00	; 0
     df6:	80 81       	ld	r24, Z
     df8:	88 60       	ori	r24, 0x08	; 8
     dfa:	8c 93       	st	X, r24
			slope = 0;
     dfc:	1a 86       	std	Y+10, r1	; 0x0a
     dfe:	19 86       	std	Y+9, r1	; 0x09
			integral = 0;
     e00:	1a 82       	std	Y+2, r1	; 0x02
     e02:	19 82       	std	Y+1, r1	; 0x01
     e04:	2d ce       	rjmp	.-934    	; 0xa60 <main+0x102>
			break;
		default:
			mode = MODE_OFF;
     e06:	10 92 d8 01 	sts	0x01D8, r1
     e0a:	2a ce       	rjmp	.-940    	; 0xa60 <main+0x102>

00000e0c <i2c_init>:
#define F_SCL 100000UL // SCL frequency
#define Prescaler 1
#define TWBR_val ((((F_CPU / F_SCL) / Prescaler) - 16 ) / 2)

void i2c_init(void)
{
     e0c:	df 93       	push	r29
     e0e:	cf 93       	push	r28
     e10:	cd b7       	in	r28, 0x3d	; 61
     e12:	de b7       	in	r29, 0x3e	; 62
	TWBR = (uint8_t)TWBR_val;
     e14:	e8 eb       	ldi	r30, 0xB8	; 184
     e16:	f0 e0       	ldi	r31, 0x00	; 0
     e18:	88 e4       	ldi	r24, 0x48	; 72
     e1a:	80 83       	st	Z, r24
	TWBR = 10;
     e1c:	e8 eb       	ldi	r30, 0xB8	; 184
     e1e:	f0 e0       	ldi	r31, 0x00	; 0
     e20:	8a e0       	ldi	r24, 0x0A	; 10
     e22:	80 83       	st	Z, r24
}
     e24:	cf 91       	pop	r28
     e26:	df 91       	pop	r29
     e28:	08 95       	ret

00000e2a <i2c_start>:

uint8_t i2c_start(uint8_t address)
{
     e2a:	df 93       	push	r29
     e2c:	cf 93       	push	r28
     e2e:	00 d0       	rcall	.+0      	; 0xe30 <i2c_start+0x6>
     e30:	0f 92       	push	r0
     e32:	cd b7       	in	r28, 0x3d	; 61
     e34:	de b7       	in	r29, 0x3e	; 62
     e36:	8a 83       	std	Y+2, r24	; 0x02
	// reset TWI control register
	TWCR = 0;
     e38:	ec eb       	ldi	r30, 0xBC	; 188
     e3a:	f0 e0       	ldi	r31, 0x00	; 0
     e3c:	10 82       	st	Z, r1
	// transmit START condition
	TWCR = (1<<TWINT) | (1<<TWSTA) | (1<<TWEN);
     e3e:	ec eb       	ldi	r30, 0xBC	; 188
     e40:	f0 e0       	ldi	r31, 0x00	; 0
     e42:	84 ea       	ldi	r24, 0xA4	; 164
     e44:	80 83       	st	Z, r24
	// wait for end of transmission
	while( !(TWCR & (1<<TWINT)) );
     e46:	ec eb       	ldi	r30, 0xBC	; 188
     e48:	f0 e0       	ldi	r31, 0x00	; 0
     e4a:	80 81       	ld	r24, Z
     e4c:	88 23       	and	r24, r24
     e4e:	dc f7       	brge	.-10     	; 0xe46 <i2c_start+0x1c>
	
	// check if the start condition was successfully transmitted
	if((TWSR & 0xF8) != TW_START){ return 1; }
     e50:	e9 eb       	ldi	r30, 0xB9	; 185
     e52:	f0 e0       	ldi	r31, 0x00	; 0
     e54:	80 81       	ld	r24, Z
     e56:	88 2f       	mov	r24, r24
     e58:	90 e0       	ldi	r25, 0x00	; 0
     e5a:	88 7f       	andi	r24, 0xF8	; 248
     e5c:	90 70       	andi	r25, 0x00	; 0
     e5e:	88 30       	cpi	r24, 0x08	; 8
     e60:	91 05       	cpc	r25, r1
     e62:	19 f0       	breq	.+6      	; 0xe6a <i2c_start+0x40>
     e64:	81 e0       	ldi	r24, 0x01	; 1
     e66:	8b 83       	std	Y+3, r24	; 0x03
     e68:	1c c0       	rjmp	.+56     	; 0xea2 <i2c_start+0x78>
	
	// load slave address into data register
	TWDR = address;
     e6a:	eb eb       	ldi	r30, 0xBB	; 187
     e6c:	f0 e0       	ldi	r31, 0x00	; 0
     e6e:	8a 81       	ldd	r24, Y+2	; 0x02
     e70:	80 83       	st	Z, r24
	// start transmission of address
	TWCR = (1<<TWINT) | (1<<TWEN);
     e72:	ec eb       	ldi	r30, 0xBC	; 188
     e74:	f0 e0       	ldi	r31, 0x00	; 0
     e76:	84 e8       	ldi	r24, 0x84	; 132
     e78:	80 83       	st	Z, r24
	// wait for end of transmission
	while( !(TWCR & (1<<TWINT)) );
     e7a:	ec eb       	ldi	r30, 0xBC	; 188
     e7c:	f0 e0       	ldi	r31, 0x00	; 0
     e7e:	80 81       	ld	r24, Z
     e80:	88 23       	and	r24, r24
     e82:	dc f7       	brge	.-10     	; 0xe7a <i2c_start+0x50>
	
	// check if the device has acknowledged the READ / WRITE mode
	uint8_t twst = TW_STATUS & 0xF8;
     e84:	e9 eb       	ldi	r30, 0xB9	; 185
     e86:	f0 e0       	ldi	r31, 0x00	; 0
     e88:	80 81       	ld	r24, Z
     e8a:	88 7f       	andi	r24, 0xF8	; 248
     e8c:	89 83       	std	Y+1, r24	; 0x01
	if ( (twst != TW_MT_SLA_ACK) && (twst != TW_MR_SLA_ACK) ) return 1;
     e8e:	89 81       	ldd	r24, Y+1	; 0x01
     e90:	88 31       	cpi	r24, 0x18	; 24
     e92:	31 f0       	breq	.+12     	; 0xea0 <i2c_start+0x76>
     e94:	89 81       	ldd	r24, Y+1	; 0x01
     e96:	80 34       	cpi	r24, 0x40	; 64
     e98:	19 f0       	breq	.+6      	; 0xea0 <i2c_start+0x76>
     e9a:	81 e0       	ldi	r24, 0x01	; 1
     e9c:	8b 83       	std	Y+3, r24	; 0x03
     e9e:	01 c0       	rjmp	.+2      	; 0xea2 <i2c_start+0x78>
	
	return 0;
     ea0:	1b 82       	std	Y+3, r1	; 0x03
     ea2:	8b 81       	ldd	r24, Y+3	; 0x03
}
     ea4:	0f 90       	pop	r0
     ea6:	0f 90       	pop	r0
     ea8:	0f 90       	pop	r0
     eaa:	cf 91       	pop	r28
     eac:	df 91       	pop	r29
     eae:	08 95       	ret

00000eb0 <i2c_rep_start>:


uint8_t i2c_rep_start(uint8_t address)
{
     eb0:	df 93       	push	r29
     eb2:	cf 93       	push	r28
     eb4:	00 d0       	rcall	.+0      	; 0xeb6 <i2c_rep_start+0x6>
     eb6:	0f 92       	push	r0
     eb8:	cd b7       	in	r28, 0x3d	; 61
     eba:	de b7       	in	r29, 0x3e	; 62
     ebc:	8a 83       	std	Y+2, r24	; 0x02
	// reset TWI control register
	// TWCR = 0;
	// transmit START condition
	TWCR = (1<<TWINT) | (1<<TWSTA) | (1<<TWEN);
     ebe:	ec eb       	ldi	r30, 0xBC	; 188
     ec0:	f0 e0       	ldi	r31, 0x00	; 0
     ec2:	84 ea       	ldi	r24, 0xA4	; 164
     ec4:	80 83       	st	Z, r24
	// wait for end of transmission
	while( !(TWCR & (1<<TWINT)) );
     ec6:	ec eb       	ldi	r30, 0xBC	; 188
     ec8:	f0 e0       	ldi	r31, 0x00	; 0
     eca:	80 81       	ld	r24, Z
     ecc:	88 23       	and	r24, r24
     ece:	dc f7       	brge	.-10     	; 0xec6 <i2c_rep_start+0x16>
	
	// check if the start condition was successfully transmitted
	if((TWSR & 0xF8) != TW_REP_START){ return 1; }
     ed0:	e9 eb       	ldi	r30, 0xB9	; 185
     ed2:	f0 e0       	ldi	r31, 0x00	; 0
     ed4:	80 81       	ld	r24, Z
     ed6:	88 2f       	mov	r24, r24
     ed8:	90 e0       	ldi	r25, 0x00	; 0
     eda:	88 7f       	andi	r24, 0xF8	; 248
     edc:	90 70       	andi	r25, 0x00	; 0
     ede:	80 31       	cpi	r24, 0x10	; 16
     ee0:	91 05       	cpc	r25, r1
     ee2:	19 f0       	breq	.+6      	; 0xeea <i2c_rep_start+0x3a>
     ee4:	81 e0       	ldi	r24, 0x01	; 1
     ee6:	8b 83       	std	Y+3, r24	; 0x03
     ee8:	1c c0       	rjmp	.+56     	; 0xf22 <i2c_rep_start+0x72>
	
	// load slave address into data register
	TWDR = address;
     eea:	eb eb       	ldi	r30, 0xBB	; 187
     eec:	f0 e0       	ldi	r31, 0x00	; 0
     eee:	8a 81       	ldd	r24, Y+2	; 0x02
     ef0:	80 83       	st	Z, r24
	// start transmission of address
	TWCR = (1<<TWINT) | (1<<TWEN);
     ef2:	ec eb       	ldi	r30, 0xBC	; 188
     ef4:	f0 e0       	ldi	r31, 0x00	; 0
     ef6:	84 e8       	ldi	r24, 0x84	; 132
     ef8:	80 83       	st	Z, r24
	// wait for end of transmission
	while( !(TWCR & (1<<TWINT)) );
     efa:	ec eb       	ldi	r30, 0xBC	; 188
     efc:	f0 e0       	ldi	r31, 0x00	; 0
     efe:	80 81       	ld	r24, Z
     f00:	88 23       	and	r24, r24
     f02:	dc f7       	brge	.-10     	; 0xefa <i2c_rep_start+0x4a>
	
	// check if the device has acknowledged the READ / WRITE mode
	uint8_t twst = TW_STATUS & 0xF8;
     f04:	e9 eb       	ldi	r30, 0xB9	; 185
     f06:	f0 e0       	ldi	r31, 0x00	; 0
     f08:	80 81       	ld	r24, Z
     f0a:	88 7f       	andi	r24, 0xF8	; 248
     f0c:	89 83       	std	Y+1, r24	; 0x01
	if ( (twst != TW_MT_SLA_ACK) && (twst != TW_MR_SLA_ACK) ) return 1;
     f0e:	89 81       	ldd	r24, Y+1	; 0x01
     f10:	88 31       	cpi	r24, 0x18	; 24
     f12:	31 f0       	breq	.+12     	; 0xf20 <i2c_rep_start+0x70>
     f14:	89 81       	ldd	r24, Y+1	; 0x01
     f16:	80 34       	cpi	r24, 0x40	; 64
     f18:	19 f0       	breq	.+6      	; 0xf20 <i2c_rep_start+0x70>
     f1a:	81 e0       	ldi	r24, 0x01	; 1
     f1c:	8b 83       	std	Y+3, r24	; 0x03
     f1e:	01 c0       	rjmp	.+2      	; 0xf22 <i2c_rep_start+0x72>
	
	return 0;
     f20:	1b 82       	std	Y+3, r1	; 0x03
     f22:	8b 81       	ldd	r24, Y+3	; 0x03
}
     f24:	0f 90       	pop	r0
     f26:	0f 90       	pop	r0
     f28:	0f 90       	pop	r0
     f2a:	cf 91       	pop	r28
     f2c:	df 91       	pop	r29
     f2e:	08 95       	ret

00000f30 <i2c_write>:


uint8_t i2c_write(uint8_t data)
{
     f30:	df 93       	push	r29
     f32:	cf 93       	push	r28
     f34:	00 d0       	rcall	.+0      	; 0xf36 <i2c_write+0x6>
     f36:	cd b7       	in	r28, 0x3d	; 61
     f38:	de b7       	in	r29, 0x3e	; 62
     f3a:	89 83       	std	Y+1, r24	; 0x01
	// load data into data register
	TWDR = data;
     f3c:	eb eb       	ldi	r30, 0xBB	; 187
     f3e:	f0 e0       	ldi	r31, 0x00	; 0
     f40:	89 81       	ldd	r24, Y+1	; 0x01
     f42:	80 83       	st	Z, r24
	// start transmission of data
	TWCR = (1<<TWINT) | (1<<TWEN);
     f44:	ec eb       	ldi	r30, 0xBC	; 188
     f46:	f0 e0       	ldi	r31, 0x00	; 0
     f48:	84 e8       	ldi	r24, 0x84	; 132
     f4a:	80 83       	st	Z, r24
	// wait for end of transmission
	while( !(TWCR & (1<<TWINT)) );
     f4c:	ec eb       	ldi	r30, 0xBC	; 188
     f4e:	f0 e0       	ldi	r31, 0x00	; 0
     f50:	80 81       	ld	r24, Z
     f52:	88 23       	and	r24, r24
     f54:	dc f7       	brge	.-10     	; 0xf4c <i2c_write+0x1c>
	
	if( (TWSR & 0xF8) != TW_MT_DATA_ACK ){ return 1; }
     f56:	e9 eb       	ldi	r30, 0xB9	; 185
     f58:	f0 e0       	ldi	r31, 0x00	; 0
     f5a:	80 81       	ld	r24, Z
     f5c:	88 2f       	mov	r24, r24
     f5e:	90 e0       	ldi	r25, 0x00	; 0
     f60:	88 7f       	andi	r24, 0xF8	; 248
     f62:	90 70       	andi	r25, 0x00	; 0
     f64:	88 32       	cpi	r24, 0x28	; 40
     f66:	91 05       	cpc	r25, r1
     f68:	19 f0       	breq	.+6      	; 0xf70 <i2c_write+0x40>
     f6a:	81 e0       	ldi	r24, 0x01	; 1
     f6c:	8a 83       	std	Y+2, r24	; 0x02
     f6e:	01 c0       	rjmp	.+2      	; 0xf72 <i2c_write+0x42>
	
	return 0;
     f70:	1a 82       	std	Y+2, r1	; 0x02
     f72:	8a 81       	ldd	r24, Y+2	; 0x02
}
     f74:	0f 90       	pop	r0
     f76:	0f 90       	pop	r0
     f78:	cf 91       	pop	r28
     f7a:	df 91       	pop	r29
     f7c:	08 95       	ret

00000f7e <i2c_read_ack>:

uint8_t i2c_read_ack(void)
{
     f7e:	df 93       	push	r29
     f80:	cf 93       	push	r28
     f82:	cd b7       	in	r28, 0x3d	; 61
     f84:	de b7       	in	r29, 0x3e	; 62
	
	// start TWI module and acknowledge data after reception
	TWCR = (1<<TWINT) | (1<<TWEN) | (1<<TWEA);
     f86:	ec eb       	ldi	r30, 0xBC	; 188
     f88:	f0 e0       	ldi	r31, 0x00	; 0
     f8a:	84 ec       	ldi	r24, 0xC4	; 196
     f8c:	80 83       	st	Z, r24
	// wait for end of transmission
	while( !(TWCR & (1<<TWINT)) );
     f8e:	ec eb       	ldi	r30, 0xBC	; 188
     f90:	f0 e0       	ldi	r31, 0x00	; 0
     f92:	80 81       	ld	r24, Z
     f94:	88 23       	and	r24, r24
     f96:	dc f7       	brge	.-10     	; 0xf8e <i2c_read_ack+0x10>
	// return received data from TWDR
	return TWDR;
     f98:	eb eb       	ldi	r30, 0xBB	; 187
     f9a:	f0 e0       	ldi	r31, 0x00	; 0
     f9c:	80 81       	ld	r24, Z
}
     f9e:	cf 91       	pop	r28
     fa0:	df 91       	pop	r29
     fa2:	08 95       	ret

00000fa4 <i2c_read_nack>:

uint8_t i2c_read_nack(void)
{
     fa4:	df 93       	push	r29
     fa6:	cf 93       	push	r28
     fa8:	cd b7       	in	r28, 0x3d	; 61
     faa:	de b7       	in	r29, 0x3e	; 62
	
	// start receiving without acknowledging reception
	TWCR = (1<<TWINT) | (1<<TWEN);
     fac:	ec eb       	ldi	r30, 0xBC	; 188
     fae:	f0 e0       	ldi	r31, 0x00	; 0
     fb0:	84 e8       	ldi	r24, 0x84	; 132
     fb2:	80 83       	st	Z, r24
	// wait for end of transmission
	while( !(TWCR & (1<<TWINT)) );
     fb4:	ec eb       	ldi	r30, 0xBC	; 188
     fb6:	f0 e0       	ldi	r31, 0x00	; 0
     fb8:	80 81       	ld	r24, Z
     fba:	88 23       	and	r24, r24
     fbc:	dc f7       	brge	.-10     	; 0xfb4 <i2c_read_nack+0x10>
	// return received data from TWDR
	return TWDR;
     fbe:	eb eb       	ldi	r30, 0xBB	; 187
     fc0:	f0 e0       	ldi	r31, 0x00	; 0
     fc2:	80 81       	ld	r24, Z
}
     fc4:	cf 91       	pop	r28
     fc6:	df 91       	pop	r29
     fc8:	08 95       	ret

00000fca <i2c_transmit>:

uint8_t i2c_transmit(uint8_t address, uint8_t* data, uint16_t length)
{
     fca:	df 93       	push	r29
     fcc:	cf 93       	push	r28
     fce:	cd b7       	in	r28, 0x3d	; 61
     fd0:	de b7       	in	r29, 0x3e	; 62
     fd2:	28 97       	sbiw	r28, 0x08	; 8
     fd4:	0f b6       	in	r0, 0x3f	; 63
     fd6:	f8 94       	cli
     fd8:	de bf       	out	0x3e, r29	; 62
     fda:	0f be       	out	0x3f, r0	; 63
     fdc:	cd bf       	out	0x3d, r28	; 61
     fde:	8b 83       	std	Y+3, r24	; 0x03
     fe0:	7d 83       	std	Y+5, r23	; 0x05
     fe2:	6c 83       	std	Y+4, r22	; 0x04
     fe4:	5f 83       	std	Y+7, r21	; 0x07
     fe6:	4e 83       	std	Y+6, r20	; 0x06
	if (i2c_start(address | I2C_WRITE)) return 1;
     fe8:	8b 81       	ldd	r24, Y+3	; 0x03
     fea:	0e 94 15 07 	call	0xe2a	; 0xe2a <i2c_start>
     fee:	88 23       	and	r24, r24
     ff0:	19 f0       	breq	.+6      	; 0xff8 <i2c_transmit+0x2e>
     ff2:	81 e0       	ldi	r24, 0x01	; 1
     ff4:	88 87       	std	Y+8, r24	; 0x08
     ff6:	21 c0       	rjmp	.+66     	; 0x103a <i2c_transmit+0x70>
	
	for (uint16_t i = 0; i < length; i++)
     ff8:	1a 82       	std	Y+2, r1	; 0x02
     ffa:	19 82       	std	Y+1, r1	; 0x01
     ffc:	14 c0       	rjmp	.+40     	; 0x1026 <i2c_transmit+0x5c>
	{
		if (i2c_write(data[i])) return 1;
     ffe:	2c 81       	ldd	r18, Y+4	; 0x04
    1000:	3d 81       	ldd	r19, Y+5	; 0x05
    1002:	89 81       	ldd	r24, Y+1	; 0x01
    1004:	9a 81       	ldd	r25, Y+2	; 0x02
    1006:	f9 01       	movw	r30, r18
    1008:	e8 0f       	add	r30, r24
    100a:	f9 1f       	adc	r31, r25
    100c:	80 81       	ld	r24, Z
    100e:	0e 94 98 07 	call	0xf30	; 0xf30 <i2c_write>
    1012:	88 23       	and	r24, r24
    1014:	19 f0       	breq	.+6      	; 0x101c <i2c_transmit+0x52>
    1016:	81 e0       	ldi	r24, 0x01	; 1
    1018:	88 87       	std	Y+8, r24	; 0x08
    101a:	0f c0       	rjmp	.+30     	; 0x103a <i2c_transmit+0x70>

uint8_t i2c_transmit(uint8_t address, uint8_t* data, uint16_t length)
{
	if (i2c_start(address | I2C_WRITE)) return 1;
	
	for (uint16_t i = 0; i < length; i++)
    101c:	89 81       	ldd	r24, Y+1	; 0x01
    101e:	9a 81       	ldd	r25, Y+2	; 0x02
    1020:	01 96       	adiw	r24, 0x01	; 1
    1022:	9a 83       	std	Y+2, r25	; 0x02
    1024:	89 83       	std	Y+1, r24	; 0x01
    1026:	29 81       	ldd	r18, Y+1	; 0x01
    1028:	3a 81       	ldd	r19, Y+2	; 0x02
    102a:	8e 81       	ldd	r24, Y+6	; 0x06
    102c:	9f 81       	ldd	r25, Y+7	; 0x07
    102e:	28 17       	cp	r18, r24
    1030:	39 07       	cpc	r19, r25
    1032:	28 f3       	brcs	.-54     	; 0xffe <i2c_transmit+0x34>
	{
		if (i2c_write(data[i])) return 1;
	}
	
	i2c_stop();
    1034:	0e 94 21 09 	call	0x1242	; 0x1242 <i2c_stop>
	
	return 0;
    1038:	18 86       	std	Y+8, r1	; 0x08
    103a:	88 85       	ldd	r24, Y+8	; 0x08
}
    103c:	28 96       	adiw	r28, 0x08	; 8
    103e:	0f b6       	in	r0, 0x3f	; 63
    1040:	f8 94       	cli
    1042:	de bf       	out	0x3e, r29	; 62
    1044:	0f be       	out	0x3f, r0	; 63
    1046:	cd bf       	out	0x3d, r28	; 61
    1048:	cf 91       	pop	r28
    104a:	df 91       	pop	r29
    104c:	08 95       	ret

0000104e <i2c_receive>:

uint8_t i2c_receive(uint8_t address, uint8_t* data, uint16_t length)
{
    104e:	0f 93       	push	r16
    1050:	1f 93       	push	r17
    1052:	df 93       	push	r29
    1054:	cf 93       	push	r28
    1056:	cd b7       	in	r28, 0x3d	; 61
    1058:	de b7       	in	r29, 0x3e	; 62
    105a:	28 97       	sbiw	r28, 0x08	; 8
    105c:	0f b6       	in	r0, 0x3f	; 63
    105e:	f8 94       	cli
    1060:	de bf       	out	0x3e, r29	; 62
    1062:	0f be       	out	0x3f, r0	; 63
    1064:	cd bf       	out	0x3d, r28	; 61
    1066:	8b 83       	std	Y+3, r24	; 0x03
    1068:	7d 83       	std	Y+5, r23	; 0x05
    106a:	6c 83       	std	Y+4, r22	; 0x04
    106c:	5f 83       	std	Y+7, r21	; 0x07
    106e:	4e 83       	std	Y+6, r20	; 0x06
	if (i2c_start(address | I2C_READ)) return 1;
    1070:	8b 81       	ldd	r24, Y+3	; 0x03
    1072:	81 60       	ori	r24, 0x01	; 1
    1074:	0e 94 15 07 	call	0xe2a	; 0xe2a <i2c_start>
    1078:	88 23       	and	r24, r24
    107a:	19 f0       	breq	.+6      	; 0x1082 <i2c_receive+0x34>
    107c:	81 e0       	ldi	r24, 0x01	; 1
    107e:	88 87       	std	Y+8, r24	; 0x08
    1080:	2e c0       	rjmp	.+92     	; 0x10de <i2c_receive+0x90>
	
	for (uint16_t i = 0; i < (length-1); i++)
    1082:	1a 82       	std	Y+2, r1	; 0x02
    1084:	19 82       	std	Y+1, r1	; 0x01
    1086:	10 c0       	rjmp	.+32     	; 0x10a8 <i2c_receive+0x5a>
	{
		data[i] = i2c_read_ack();
    1088:	2c 81       	ldd	r18, Y+4	; 0x04
    108a:	3d 81       	ldd	r19, Y+5	; 0x05
    108c:	89 81       	ldd	r24, Y+1	; 0x01
    108e:	9a 81       	ldd	r25, Y+2	; 0x02
    1090:	89 01       	movw	r16, r18
    1092:	08 0f       	add	r16, r24
    1094:	19 1f       	adc	r17, r25
    1096:	0e 94 bf 07 	call	0xf7e	; 0xf7e <i2c_read_ack>
    109a:	f8 01       	movw	r30, r16
    109c:	80 83       	st	Z, r24

uint8_t i2c_receive(uint8_t address, uint8_t* data, uint16_t length)
{
	if (i2c_start(address | I2C_READ)) return 1;
	
	for (uint16_t i = 0; i < (length-1); i++)
    109e:	89 81       	ldd	r24, Y+1	; 0x01
    10a0:	9a 81       	ldd	r25, Y+2	; 0x02
    10a2:	01 96       	adiw	r24, 0x01	; 1
    10a4:	9a 83       	std	Y+2, r25	; 0x02
    10a6:	89 83       	std	Y+1, r24	; 0x01
    10a8:	8e 81       	ldd	r24, Y+6	; 0x06
    10aa:	9f 81       	ldd	r25, Y+7	; 0x07
    10ac:	9c 01       	movw	r18, r24
    10ae:	21 50       	subi	r18, 0x01	; 1
    10b0:	30 40       	sbci	r19, 0x00	; 0
    10b2:	89 81       	ldd	r24, Y+1	; 0x01
    10b4:	9a 81       	ldd	r25, Y+2	; 0x02
    10b6:	82 17       	cp	r24, r18
    10b8:	93 07       	cpc	r25, r19
    10ba:	30 f3       	brcs	.-52     	; 0x1088 <i2c_receive+0x3a>
	{
		data[i] = i2c_read_ack();
	}
	data[(length-1)] = i2c_read_nack();
    10bc:	8e 81       	ldd	r24, Y+6	; 0x06
    10be:	9f 81       	ldd	r25, Y+7	; 0x07
    10c0:	9c 01       	movw	r18, r24
    10c2:	21 50       	subi	r18, 0x01	; 1
    10c4:	30 40       	sbci	r19, 0x00	; 0
    10c6:	8c 81       	ldd	r24, Y+4	; 0x04
    10c8:	9d 81       	ldd	r25, Y+5	; 0x05
    10ca:	8c 01       	movw	r16, r24
    10cc:	02 0f       	add	r16, r18
    10ce:	13 1f       	adc	r17, r19
    10d0:	0e 94 d2 07 	call	0xfa4	; 0xfa4 <i2c_read_nack>
    10d4:	f8 01       	movw	r30, r16
    10d6:	80 83       	st	Z, r24
	
	i2c_stop();
    10d8:	0e 94 21 09 	call	0x1242	; 0x1242 <i2c_stop>
	
	return 0;
    10dc:	18 86       	std	Y+8, r1	; 0x08
    10de:	88 85       	ldd	r24, Y+8	; 0x08
}
    10e0:	28 96       	adiw	r28, 0x08	; 8
    10e2:	0f b6       	in	r0, 0x3f	; 63
    10e4:	f8 94       	cli
    10e6:	de bf       	out	0x3e, r29	; 62
    10e8:	0f be       	out	0x3f, r0	; 63
    10ea:	cd bf       	out	0x3d, r28	; 61
    10ec:	cf 91       	pop	r28
    10ee:	df 91       	pop	r29
    10f0:	1f 91       	pop	r17
    10f2:	0f 91       	pop	r16
    10f4:	08 95       	ret

000010f6 <i2c_writeReg>:

uint8_t i2c_writeReg(uint8_t devaddr, uint8_t regaddr, uint8_t* data, uint16_t length)
{
    10f6:	df 93       	push	r29
    10f8:	cf 93       	push	r28
    10fa:	cd b7       	in	r28, 0x3d	; 61
    10fc:	de b7       	in	r29, 0x3e	; 62
    10fe:	29 97       	sbiw	r28, 0x09	; 9
    1100:	0f b6       	in	r0, 0x3f	; 63
    1102:	f8 94       	cli
    1104:	de bf       	out	0x3e, r29	; 62
    1106:	0f be       	out	0x3f, r0	; 63
    1108:	cd bf       	out	0x3d, r28	; 61
    110a:	8b 83       	std	Y+3, r24	; 0x03
    110c:	6c 83       	std	Y+4, r22	; 0x04
    110e:	5e 83       	std	Y+6, r21	; 0x06
    1110:	4d 83       	std	Y+5, r20	; 0x05
    1112:	38 87       	std	Y+8, r19	; 0x08
    1114:	2f 83       	std	Y+7, r18	; 0x07
	if (i2c_start(devaddr | 0x00)) return 1;
    1116:	8b 81       	ldd	r24, Y+3	; 0x03
    1118:	0e 94 15 07 	call	0xe2a	; 0xe2a <i2c_start>
    111c:	88 23       	and	r24, r24
    111e:	19 f0       	breq	.+6      	; 0x1126 <i2c_writeReg+0x30>
    1120:	81 e0       	ldi	r24, 0x01	; 1
    1122:	89 87       	std	Y+9, r24	; 0x09
    1124:	24 c0       	rjmp	.+72     	; 0x116e <i2c_writeReg+0x78>

	i2c_write(regaddr);
    1126:	8c 81       	ldd	r24, Y+4	; 0x04
    1128:	0e 94 98 07 	call	0xf30	; 0xf30 <i2c_write>

	for (uint16_t i = 0; i < length; i++)
    112c:	1a 82       	std	Y+2, r1	; 0x02
    112e:	19 82       	std	Y+1, r1	; 0x01
    1130:	14 c0       	rjmp	.+40     	; 0x115a <i2c_writeReg+0x64>
	{
		if (i2c_write(data[i])) return 1;
    1132:	2d 81       	ldd	r18, Y+5	; 0x05
    1134:	3e 81       	ldd	r19, Y+6	; 0x06
    1136:	89 81       	ldd	r24, Y+1	; 0x01
    1138:	9a 81       	ldd	r25, Y+2	; 0x02
    113a:	f9 01       	movw	r30, r18
    113c:	e8 0f       	add	r30, r24
    113e:	f9 1f       	adc	r31, r25
    1140:	80 81       	ld	r24, Z
    1142:	0e 94 98 07 	call	0xf30	; 0xf30 <i2c_write>
    1146:	88 23       	and	r24, r24
    1148:	19 f0       	breq	.+6      	; 0x1150 <i2c_writeReg+0x5a>
    114a:	81 e0       	ldi	r24, 0x01	; 1
    114c:	89 87       	std	Y+9, r24	; 0x09
    114e:	0f c0       	rjmp	.+30     	; 0x116e <i2c_writeReg+0x78>
{
	if (i2c_start(devaddr | 0x00)) return 1;

	i2c_write(regaddr);

	for (uint16_t i = 0; i < length; i++)
    1150:	89 81       	ldd	r24, Y+1	; 0x01
    1152:	9a 81       	ldd	r25, Y+2	; 0x02
    1154:	01 96       	adiw	r24, 0x01	; 1
    1156:	9a 83       	std	Y+2, r25	; 0x02
    1158:	89 83       	std	Y+1, r24	; 0x01
    115a:	29 81       	ldd	r18, Y+1	; 0x01
    115c:	3a 81       	ldd	r19, Y+2	; 0x02
    115e:	8f 81       	ldd	r24, Y+7	; 0x07
    1160:	98 85       	ldd	r25, Y+8	; 0x08
    1162:	28 17       	cp	r18, r24
    1164:	39 07       	cpc	r19, r25
    1166:	28 f3       	brcs	.-54     	; 0x1132 <i2c_writeReg+0x3c>
	{
		if (i2c_write(data[i])) return 1;
	}

	i2c_stop();
    1168:	0e 94 21 09 	call	0x1242	; 0x1242 <i2c_stop>

	return 0;
    116c:	19 86       	std	Y+9, r1	; 0x09
    116e:	89 85       	ldd	r24, Y+9	; 0x09
}
    1170:	29 96       	adiw	r28, 0x09	; 9
    1172:	0f b6       	in	r0, 0x3f	; 63
    1174:	f8 94       	cli
    1176:	de bf       	out	0x3e, r29	; 62
    1178:	0f be       	out	0x3f, r0	; 63
    117a:	cd bf       	out	0x3d, r28	; 61
    117c:	cf 91       	pop	r28
    117e:	df 91       	pop	r29
    1180:	08 95       	ret

00001182 <i2c_readReg>:

uint8_t i2c_readReg(uint8_t devaddr, uint8_t regaddr, uint8_t* data, uint16_t length)
{
    1182:	0f 93       	push	r16
    1184:	1f 93       	push	r17
    1186:	df 93       	push	r29
    1188:	cf 93       	push	r28
    118a:	cd b7       	in	r28, 0x3d	; 61
    118c:	de b7       	in	r29, 0x3e	; 62
    118e:	29 97       	sbiw	r28, 0x09	; 9
    1190:	0f b6       	in	r0, 0x3f	; 63
    1192:	f8 94       	cli
    1194:	de bf       	out	0x3e, r29	; 62
    1196:	0f be       	out	0x3f, r0	; 63
    1198:	cd bf       	out	0x3d, r28	; 61
    119a:	8b 83       	std	Y+3, r24	; 0x03
    119c:	6c 83       	std	Y+4, r22	; 0x04
    119e:	5e 83       	std	Y+6, r21	; 0x06
    11a0:	4d 83       	std	Y+5, r20	; 0x05
    11a2:	38 87       	std	Y+8, r19	; 0x08
    11a4:	2f 83       	std	Y+7, r18	; 0x07
	if (i2c_start(devaddr)) return 1;
    11a6:	8b 81       	ldd	r24, Y+3	; 0x03
    11a8:	0e 94 15 07 	call	0xe2a	; 0xe2a <i2c_start>
    11ac:	88 23       	and	r24, r24
    11ae:	19 f0       	breq	.+6      	; 0x11b6 <i2c_readReg+0x34>
    11b0:	81 e0       	ldi	r24, 0x01	; 1
    11b2:	89 87       	std	Y+9, r24	; 0x09
    11b4:	3a c0       	rjmp	.+116    	; 0x122a <i2c_readReg+0xa8>

	i2c_write(regaddr);
    11b6:	8c 81       	ldd	r24, Y+4	; 0x04
    11b8:	0e 94 98 07 	call	0xf30	; 0xf30 <i2c_write>

	if (i2c_start(devaddr | 0x01)) return 1;
    11bc:	8b 81       	ldd	r24, Y+3	; 0x03
    11be:	81 60       	ori	r24, 0x01	; 1
    11c0:	0e 94 15 07 	call	0xe2a	; 0xe2a <i2c_start>
    11c4:	88 23       	and	r24, r24
    11c6:	19 f0       	breq	.+6      	; 0x11ce <i2c_readReg+0x4c>
    11c8:	e1 e0       	ldi	r30, 0x01	; 1
    11ca:	e9 87       	std	Y+9, r30	; 0x09
    11cc:	2e c0       	rjmp	.+92     	; 0x122a <i2c_readReg+0xa8>

	for (uint16_t i = 0; i < (length-1); i++)
    11ce:	1a 82       	std	Y+2, r1	; 0x02
    11d0:	19 82       	std	Y+1, r1	; 0x01
    11d2:	10 c0       	rjmp	.+32     	; 0x11f4 <i2c_readReg+0x72>
	{
		data[i] = i2c_read_ack();
    11d4:	2d 81       	ldd	r18, Y+5	; 0x05
    11d6:	3e 81       	ldd	r19, Y+6	; 0x06
    11d8:	89 81       	ldd	r24, Y+1	; 0x01
    11da:	9a 81       	ldd	r25, Y+2	; 0x02
    11dc:	89 01       	movw	r16, r18
    11de:	08 0f       	add	r16, r24
    11e0:	19 1f       	adc	r17, r25
    11e2:	0e 94 bf 07 	call	0xf7e	; 0xf7e <i2c_read_ack>
    11e6:	f8 01       	movw	r30, r16
    11e8:	80 83       	st	Z, r24

	i2c_write(regaddr);

	if (i2c_start(devaddr | 0x01)) return 1;

	for (uint16_t i = 0; i < (length-1); i++)
    11ea:	89 81       	ldd	r24, Y+1	; 0x01
    11ec:	9a 81       	ldd	r25, Y+2	; 0x02
    11ee:	01 96       	adiw	r24, 0x01	; 1
    11f0:	9a 83       	std	Y+2, r25	; 0x02
    11f2:	89 83       	std	Y+1, r24	; 0x01
    11f4:	8f 81       	ldd	r24, Y+7	; 0x07
    11f6:	98 85       	ldd	r25, Y+8	; 0x08
    11f8:	9c 01       	movw	r18, r24
    11fa:	21 50       	subi	r18, 0x01	; 1
    11fc:	30 40       	sbci	r19, 0x00	; 0
    11fe:	89 81       	ldd	r24, Y+1	; 0x01
    1200:	9a 81       	ldd	r25, Y+2	; 0x02
    1202:	82 17       	cp	r24, r18
    1204:	93 07       	cpc	r25, r19
    1206:	30 f3       	brcs	.-52     	; 0x11d4 <i2c_readReg+0x52>
	{
		data[i] = i2c_read_ack();
	}
	data[(length-1)] = i2c_read_nack();
    1208:	8f 81       	ldd	r24, Y+7	; 0x07
    120a:	98 85       	ldd	r25, Y+8	; 0x08
    120c:	9c 01       	movw	r18, r24
    120e:	21 50       	subi	r18, 0x01	; 1
    1210:	30 40       	sbci	r19, 0x00	; 0
    1212:	8d 81       	ldd	r24, Y+5	; 0x05
    1214:	9e 81       	ldd	r25, Y+6	; 0x06
    1216:	8c 01       	movw	r16, r24
    1218:	02 0f       	add	r16, r18
    121a:	13 1f       	adc	r17, r19
    121c:	0e 94 d2 07 	call	0xfa4	; 0xfa4 <i2c_read_nack>
    1220:	f8 01       	movw	r30, r16
    1222:	80 83       	st	Z, r24

	i2c_stop();
    1224:	0e 94 21 09 	call	0x1242	; 0x1242 <i2c_stop>

	return 0;
    1228:	19 86       	std	Y+9, r1	; 0x09
    122a:	89 85       	ldd	r24, Y+9	; 0x09
}
    122c:	29 96       	adiw	r28, 0x09	; 9
    122e:	0f b6       	in	r0, 0x3f	; 63
    1230:	f8 94       	cli
    1232:	de bf       	out	0x3e, r29	; 62
    1234:	0f be       	out	0x3f, r0	; 63
    1236:	cd bf       	out	0x3d, r28	; 61
    1238:	cf 91       	pop	r28
    123a:	df 91       	pop	r29
    123c:	1f 91       	pop	r17
    123e:	0f 91       	pop	r16
    1240:	08 95       	ret

00001242 <i2c_stop>:

void i2c_stop(void)
{
    1242:	df 93       	push	r29
    1244:	cf 93       	push	r28
    1246:	cd b7       	in	r28, 0x3d	; 61
    1248:	de b7       	in	r29, 0x3e	; 62
	// transmit STOP condition
	TWCR = (1<<TWINT) | (1<<TWEN) | (1<<TWSTO);
    124a:	ec eb       	ldi	r30, 0xBC	; 188
    124c:	f0 e0       	ldi	r31, 0x00	; 0
    124e:	84 e9       	ldi	r24, 0x94	; 148
    1250:	80 83       	st	Z, r24
}
    1252:	cf 91       	pop	r28
    1254:	df 91       	pop	r29
    1256:	08 95       	ret

00001258 <vfprintf>:
    1258:	a1 e1       	ldi	r26, 0x11	; 17
    125a:	b0 e0       	ldi	r27, 0x00	; 0
    125c:	e2 e3       	ldi	r30, 0x32	; 50
    125e:	f9 e0       	ldi	r31, 0x09	; 9
    1260:	0c 94 da 0c 	jmp	0x19b4	; 0x19b4 <__prologue_saves__>
    1264:	3c 01       	movw	r6, r24
    1266:	7f 87       	std	Y+15, r23	; 0x0f
    1268:	6e 87       	std	Y+14, r22	; 0x0e
    126a:	6a 01       	movw	r12, r20
    126c:	fc 01       	movw	r30, r24
    126e:	17 82       	std	Z+7, r1	; 0x07
    1270:	16 82       	std	Z+6, r1	; 0x06
    1272:	83 81       	ldd	r24, Z+3	; 0x03
    1274:	81 fd       	sbrc	r24, 1
    1276:	03 c0       	rjmp	.+6      	; 0x127e <vfprintf+0x26>
    1278:	6f ef       	ldi	r22, 0xFF	; 255
    127a:	7f ef       	ldi	r23, 0xFF	; 255
    127c:	6f c3       	rjmp	.+1758   	; 0x195c <vfprintf+0x704>
    127e:	9e 01       	movw	r18, r28
    1280:	2f 5f       	subi	r18, 0xFF	; 255
    1282:	3f 4f       	sbci	r19, 0xFF	; 255
    1284:	39 8b       	std	Y+17, r19	; 0x11
    1286:	28 8b       	std	Y+16, r18	; 0x10
    1288:	f3 01       	movw	r30, r6
    128a:	23 81       	ldd	r18, Z+3	; 0x03
    128c:	ee 85       	ldd	r30, Y+14	; 0x0e
    128e:	ff 85       	ldd	r31, Y+15	; 0x0f
    1290:	23 fd       	sbrc	r18, 3
    1292:	85 91       	lpm	r24, Z+
    1294:	23 ff       	sbrs	r18, 3
    1296:	81 91       	ld	r24, Z+
    1298:	ff 87       	std	Y+15, r31	; 0x0f
    129a:	ee 87       	std	Y+14, r30	; 0x0e
    129c:	88 23       	and	r24, r24
    129e:	09 f4       	brne	.+2      	; 0x12a2 <vfprintf+0x4a>
    12a0:	5a c3       	rjmp	.+1716   	; 0x1956 <vfprintf+0x6fe>
    12a2:	85 32       	cpi	r24, 0x25	; 37
    12a4:	51 f4       	brne	.+20     	; 0x12ba <vfprintf+0x62>
    12a6:	ee 85       	ldd	r30, Y+14	; 0x0e
    12a8:	ff 85       	ldd	r31, Y+15	; 0x0f
    12aa:	23 fd       	sbrc	r18, 3
    12ac:	85 91       	lpm	r24, Z+
    12ae:	23 ff       	sbrs	r18, 3
    12b0:	81 91       	ld	r24, Z+
    12b2:	ff 87       	std	Y+15, r31	; 0x0f
    12b4:	ee 87       	std	Y+14, r30	; 0x0e
    12b6:	85 32       	cpi	r24, 0x25	; 37
    12b8:	29 f4       	brne	.+10     	; 0x12c4 <vfprintf+0x6c>
    12ba:	90 e0       	ldi	r25, 0x00	; 0
    12bc:	b3 01       	movw	r22, r6
    12be:	0e 94 4b 0e 	call	0x1c96	; 0x1c96 <fputc>
    12c2:	e2 cf       	rjmp	.-60     	; 0x1288 <vfprintf+0x30>
    12c4:	98 2f       	mov	r25, r24
    12c6:	10 e0       	ldi	r17, 0x00	; 0
    12c8:	88 24       	eor	r8, r8
    12ca:	99 24       	eor	r9, r9
    12cc:	10 32       	cpi	r17, 0x20	; 32
    12ce:	b0 f4       	brcc	.+44     	; 0x12fc <vfprintf+0xa4>
    12d0:	9b 32       	cpi	r25, 0x2B	; 43
    12d2:	69 f0       	breq	.+26     	; 0x12ee <vfprintf+0x96>
    12d4:	9c 32       	cpi	r25, 0x2C	; 44
    12d6:	28 f4       	brcc	.+10     	; 0x12e2 <vfprintf+0x8a>
    12d8:	90 32       	cpi	r25, 0x20	; 32
    12da:	51 f0       	breq	.+20     	; 0x12f0 <vfprintf+0x98>
    12dc:	93 32       	cpi	r25, 0x23	; 35
    12de:	71 f4       	brne	.+28     	; 0x12fc <vfprintf+0xa4>
    12e0:	0b c0       	rjmp	.+22     	; 0x12f8 <vfprintf+0xa0>
    12e2:	9d 32       	cpi	r25, 0x2D	; 45
    12e4:	39 f0       	breq	.+14     	; 0x12f4 <vfprintf+0x9c>
    12e6:	90 33       	cpi	r25, 0x30	; 48
    12e8:	49 f4       	brne	.+18     	; 0x12fc <vfprintf+0xa4>
    12ea:	11 60       	ori	r17, 0x01	; 1
    12ec:	28 c0       	rjmp	.+80     	; 0x133e <vfprintf+0xe6>
    12ee:	12 60       	ori	r17, 0x02	; 2
    12f0:	14 60       	ori	r17, 0x04	; 4
    12f2:	25 c0       	rjmp	.+74     	; 0x133e <vfprintf+0xe6>
    12f4:	18 60       	ori	r17, 0x08	; 8
    12f6:	23 c0       	rjmp	.+70     	; 0x133e <vfprintf+0xe6>
    12f8:	10 61       	ori	r17, 0x10	; 16
    12fa:	21 c0       	rjmp	.+66     	; 0x133e <vfprintf+0xe6>
    12fc:	17 fd       	sbrc	r17, 7
    12fe:	2a c0       	rjmp	.+84     	; 0x1354 <vfprintf+0xfc>
    1300:	89 2f       	mov	r24, r25
    1302:	80 53       	subi	r24, 0x30	; 48
    1304:	8a 30       	cpi	r24, 0x0A	; 10
    1306:	78 f4       	brcc	.+30     	; 0x1326 <vfprintf+0xce>
    1308:	16 ff       	sbrs	r17, 6
    130a:	06 c0       	rjmp	.+12     	; 0x1318 <vfprintf+0xc0>
    130c:	fa e0       	ldi	r31, 0x0A	; 10
    130e:	9f 9e       	mul	r9, r31
    1310:	90 2c       	mov	r9, r0
    1312:	11 24       	eor	r1, r1
    1314:	98 0e       	add	r9, r24
    1316:	13 c0       	rjmp	.+38     	; 0x133e <vfprintf+0xe6>
    1318:	3a e0       	ldi	r19, 0x0A	; 10
    131a:	83 9e       	mul	r8, r19
    131c:	80 2c       	mov	r8, r0
    131e:	11 24       	eor	r1, r1
    1320:	88 0e       	add	r8, r24
    1322:	10 62       	ori	r17, 0x20	; 32
    1324:	0c c0       	rjmp	.+24     	; 0x133e <vfprintf+0xe6>
    1326:	9e 32       	cpi	r25, 0x2E	; 46
    1328:	21 f4       	brne	.+8      	; 0x1332 <vfprintf+0xda>
    132a:	16 fd       	sbrc	r17, 6
    132c:	14 c3       	rjmp	.+1576   	; 0x1956 <vfprintf+0x6fe>
    132e:	10 64       	ori	r17, 0x40	; 64
    1330:	06 c0       	rjmp	.+12     	; 0x133e <vfprintf+0xe6>
    1332:	9c 36       	cpi	r25, 0x6C	; 108
    1334:	11 f4       	brne	.+4      	; 0x133a <vfprintf+0xe2>
    1336:	10 68       	ori	r17, 0x80	; 128
    1338:	02 c0       	rjmp	.+4      	; 0x133e <vfprintf+0xe6>
    133a:	98 36       	cpi	r25, 0x68	; 104
    133c:	59 f4       	brne	.+22     	; 0x1354 <vfprintf+0xfc>
    133e:	ee 85       	ldd	r30, Y+14	; 0x0e
    1340:	ff 85       	ldd	r31, Y+15	; 0x0f
    1342:	23 fd       	sbrc	r18, 3
    1344:	95 91       	lpm	r25, Z+
    1346:	23 ff       	sbrs	r18, 3
    1348:	91 91       	ld	r25, Z+
    134a:	ff 87       	std	Y+15, r31	; 0x0f
    134c:	ee 87       	std	Y+14, r30	; 0x0e
    134e:	99 23       	and	r25, r25
    1350:	09 f0       	breq	.+2      	; 0x1354 <vfprintf+0xfc>
    1352:	bc cf       	rjmp	.-136    	; 0x12cc <vfprintf+0x74>
    1354:	89 2f       	mov	r24, r25
    1356:	85 54       	subi	r24, 0x45	; 69
    1358:	83 30       	cpi	r24, 0x03	; 3
    135a:	20 f4       	brcc	.+8      	; 0x1364 <vfprintf+0x10c>
    135c:	81 2f       	mov	r24, r17
    135e:	80 61       	ori	r24, 0x10	; 16
    1360:	90 5e       	subi	r25, 0xE0	; 224
    1362:	07 c0       	rjmp	.+14     	; 0x1372 <vfprintf+0x11a>
    1364:	89 2f       	mov	r24, r25
    1366:	85 56       	subi	r24, 0x65	; 101
    1368:	83 30       	cpi	r24, 0x03	; 3
    136a:	08 f0       	brcs	.+2      	; 0x136e <vfprintf+0x116>
    136c:	9f c1       	rjmp	.+830    	; 0x16ac <vfprintf+0x454>
    136e:	81 2f       	mov	r24, r17
    1370:	8f 7e       	andi	r24, 0xEF	; 239
    1372:	86 fd       	sbrc	r24, 6
    1374:	02 c0       	rjmp	.+4      	; 0x137a <vfprintf+0x122>
    1376:	76 e0       	ldi	r23, 0x06	; 6
    1378:	97 2e       	mov	r9, r23
    137a:	6f e3       	ldi	r22, 0x3F	; 63
    137c:	f6 2e       	mov	r15, r22
    137e:	f8 22       	and	r15, r24
    1380:	95 36       	cpi	r25, 0x65	; 101
    1382:	19 f4       	brne	.+6      	; 0x138a <vfprintf+0x132>
    1384:	f0 e4       	ldi	r31, 0x40	; 64
    1386:	ff 2a       	or	r15, r31
    1388:	07 c0       	rjmp	.+14     	; 0x1398 <vfprintf+0x140>
    138a:	96 36       	cpi	r25, 0x66	; 102
    138c:	19 f4       	brne	.+6      	; 0x1394 <vfprintf+0x13c>
    138e:	20 e8       	ldi	r18, 0x80	; 128
    1390:	f2 2a       	or	r15, r18
    1392:	02 c0       	rjmp	.+4      	; 0x1398 <vfprintf+0x140>
    1394:	91 10       	cpse	r9, r1
    1396:	9a 94       	dec	r9
    1398:	f7 fe       	sbrs	r15, 7
    139a:	0a c0       	rjmp	.+20     	; 0x13b0 <vfprintf+0x158>
    139c:	3b e3       	ldi	r19, 0x3B	; 59
    139e:	39 15       	cp	r19, r9
    13a0:	18 f4       	brcc	.+6      	; 0x13a8 <vfprintf+0x150>
    13a2:	5c e3       	ldi	r21, 0x3C	; 60
    13a4:	b5 2e       	mov	r11, r21
    13a6:	02 c0       	rjmp	.+4      	; 0x13ac <vfprintf+0x154>
    13a8:	b9 2c       	mov	r11, r9
    13aa:	b3 94       	inc	r11
    13ac:	27 e0       	ldi	r18, 0x07	; 7
    13ae:	09 c0       	rjmp	.+18     	; 0x13c2 <vfprintf+0x16a>
    13b0:	47 e0       	ldi	r20, 0x07	; 7
    13b2:	49 15       	cp	r20, r9
    13b4:	20 f4       	brcc	.+8      	; 0x13be <vfprintf+0x166>
    13b6:	bb 24       	eor	r11, r11
    13b8:	47 e0       	ldi	r20, 0x07	; 7
    13ba:	94 2e       	mov	r9, r20
    13bc:	f7 cf       	rjmp	.-18     	; 0x13ac <vfprintf+0x154>
    13be:	29 2d       	mov	r18, r9
    13c0:	bb 24       	eor	r11, r11
    13c2:	c6 01       	movw	r24, r12
    13c4:	04 96       	adiw	r24, 0x04	; 4
    13c6:	9d 87       	std	Y+13, r25	; 0x0d
    13c8:	8c 87       	std	Y+12, r24	; 0x0c
    13ca:	f6 01       	movw	r30, r12
    13cc:	60 81       	ld	r22, Z
    13ce:	71 81       	ldd	r23, Z+1	; 0x01
    13d0:	82 81       	ldd	r24, Z+2	; 0x02
    13d2:	93 81       	ldd	r25, Z+3	; 0x03
    13d4:	ae 01       	movw	r20, r28
    13d6:	4f 5f       	subi	r20, 0xFF	; 255
    13d8:	5f 4f       	sbci	r21, 0xFF	; 255
    13da:	0b 2d       	mov	r16, r11
    13dc:	0e 94 11 0d 	call	0x1a22	; 0x1a22 <__ftoa_engine>
    13e0:	6c 01       	movw	r12, r24
    13e2:	09 81       	ldd	r16, Y+1	; 0x01
    13e4:	20 2e       	mov	r2, r16
    13e6:	33 24       	eor	r3, r3
    13e8:	00 ff       	sbrs	r16, 0
    13ea:	04 c0       	rjmp	.+8      	; 0x13f4 <vfprintf+0x19c>
    13ec:	03 fd       	sbrc	r16, 3
    13ee:	02 c0       	rjmp	.+4      	; 0x13f4 <vfprintf+0x19c>
    13f0:	1d e2       	ldi	r17, 0x2D	; 45
    13f2:	09 c0       	rjmp	.+18     	; 0x1406 <vfprintf+0x1ae>
    13f4:	f1 fe       	sbrs	r15, 1
    13f6:	02 c0       	rjmp	.+4      	; 0x13fc <vfprintf+0x1a4>
    13f8:	1b e2       	ldi	r17, 0x2B	; 43
    13fa:	05 c0       	rjmp	.+10     	; 0x1406 <vfprintf+0x1ae>
    13fc:	f2 fc       	sbrc	r15, 2
    13fe:	02 c0       	rjmp	.+4      	; 0x1404 <vfprintf+0x1ac>
    1400:	10 e0       	ldi	r17, 0x00	; 0
    1402:	01 c0       	rjmp	.+2      	; 0x1406 <vfprintf+0x1ae>
    1404:	10 e2       	ldi	r17, 0x20	; 32
    1406:	c1 01       	movw	r24, r2
    1408:	8c 70       	andi	r24, 0x0C	; 12
    140a:	90 70       	andi	r25, 0x00	; 0
    140c:	89 2b       	or	r24, r25
    140e:	b9 f1       	breq	.+110    	; 0x147e <vfprintf+0x226>
    1410:	11 23       	and	r17, r17
    1412:	11 f4       	brne	.+4      	; 0x1418 <vfprintf+0x1c0>
    1414:	83 e0       	ldi	r24, 0x03	; 3
    1416:	01 c0       	rjmp	.+2      	; 0x141a <vfprintf+0x1c2>
    1418:	84 e0       	ldi	r24, 0x04	; 4
    141a:	88 15       	cp	r24, r8
    141c:	10 f0       	brcs	.+4      	; 0x1422 <vfprintf+0x1ca>
    141e:	88 24       	eor	r8, r8
    1420:	0a c0       	rjmp	.+20     	; 0x1436 <vfprintf+0x1de>
    1422:	88 1a       	sub	r8, r24
    1424:	f3 fc       	sbrc	r15, 3
    1426:	07 c0       	rjmp	.+14     	; 0x1436 <vfprintf+0x1de>
    1428:	80 e2       	ldi	r24, 0x20	; 32
    142a:	90 e0       	ldi	r25, 0x00	; 0
    142c:	b3 01       	movw	r22, r6
    142e:	0e 94 4b 0e 	call	0x1c96	; 0x1c96 <fputc>
    1432:	8a 94       	dec	r8
    1434:	c9 f7       	brne	.-14     	; 0x1428 <vfprintf+0x1d0>
    1436:	11 23       	and	r17, r17
    1438:	29 f0       	breq	.+10     	; 0x1444 <vfprintf+0x1ec>
    143a:	81 2f       	mov	r24, r17
    143c:	90 e0       	ldi	r25, 0x00	; 0
    143e:	b3 01       	movw	r22, r6
    1440:	0e 94 4b 0e 	call	0x1c96	; 0x1c96 <fputc>
    1444:	23 fe       	sbrs	r2, 3
    1446:	03 c0       	rjmp	.+6      	; 0x144e <vfprintf+0x1f6>
    1448:	08 e6       	ldi	r16, 0x68	; 104
    144a:	10 e0       	ldi	r17, 0x00	; 0
    144c:	0e c0       	rjmp	.+28     	; 0x146a <vfprintf+0x212>
    144e:	0c e6       	ldi	r16, 0x6C	; 108
    1450:	10 e0       	ldi	r17, 0x00	; 0
    1452:	0b c0       	rjmp	.+22     	; 0x146a <vfprintf+0x212>
    1454:	e1 14       	cp	r14, r1
    1456:	f1 04       	cpc	r15, r1
    1458:	09 f0       	breq	.+2      	; 0x145c <vfprintf+0x204>
    145a:	80 52       	subi	r24, 0x20	; 32
    145c:	90 e0       	ldi	r25, 0x00	; 0
    145e:	b3 01       	movw	r22, r6
    1460:	0e 94 4b 0e 	call	0x1c96	; 0x1c96 <fputc>
    1464:	0f 5f       	subi	r16, 0xFF	; 255
    1466:	1f 4f       	sbci	r17, 0xFF	; 255
    1468:	05 c0       	rjmp	.+10     	; 0x1474 <vfprintf+0x21c>
    146a:	ef 2c       	mov	r14, r15
    146c:	ff 24       	eor	r15, r15
    146e:	f0 e1       	ldi	r31, 0x10	; 16
    1470:	ef 22       	and	r14, r31
    1472:	ff 24       	eor	r15, r15
    1474:	f8 01       	movw	r30, r16
    1476:	84 91       	lpm	r24, Z+
    1478:	88 23       	and	r24, r24
    147a:	61 f7       	brne	.-40     	; 0x1454 <vfprintf+0x1fc>
    147c:	14 c1       	rjmp	.+552    	; 0x16a6 <vfprintf+0x44e>
    147e:	f7 fe       	sbrs	r15, 7
    1480:	12 c0       	rjmp	.+36     	; 0x14a6 <vfprintf+0x24e>
    1482:	bc 0c       	add	r11, r12
    1484:	24 fe       	sbrs	r2, 4
    1486:	04 c0       	rjmp	.+8      	; 0x1490 <vfprintf+0x238>
    1488:	8a 81       	ldd	r24, Y+2	; 0x02
    148a:	81 33       	cpi	r24, 0x31	; 49
    148c:	09 f4       	brne	.+2      	; 0x1490 <vfprintf+0x238>
    148e:	ba 94       	dec	r11
    1490:	1b 14       	cp	r1, r11
    1492:	1c f0       	brlt	.+6      	; 0x149a <vfprintf+0x242>
    1494:	bb 24       	eor	r11, r11
    1496:	b3 94       	inc	r11
    1498:	2d c0       	rjmp	.+90     	; 0x14f4 <vfprintf+0x29c>
    149a:	f8 e0       	ldi	r31, 0x08	; 8
    149c:	fb 15       	cp	r31, r11
    149e:	50 f5       	brcc	.+84     	; 0x14f4 <vfprintf+0x29c>
    14a0:	38 e0       	ldi	r19, 0x08	; 8
    14a2:	b3 2e       	mov	r11, r19
    14a4:	27 c0       	rjmp	.+78     	; 0x14f4 <vfprintf+0x29c>
    14a6:	f6 fc       	sbrc	r15, 6
    14a8:	25 c0       	rjmp	.+74     	; 0x14f4 <vfprintf+0x29c>
    14aa:	89 2d       	mov	r24, r9
    14ac:	90 e0       	ldi	r25, 0x00	; 0
    14ae:	8c 15       	cp	r24, r12
    14b0:	9d 05       	cpc	r25, r13
    14b2:	4c f0       	brlt	.+18     	; 0x14c6 <vfprintf+0x26e>
    14b4:	2c ef       	ldi	r18, 0xFC	; 252
    14b6:	c2 16       	cp	r12, r18
    14b8:	2f ef       	ldi	r18, 0xFF	; 255
    14ba:	d2 06       	cpc	r13, r18
    14bc:	24 f0       	brlt	.+8      	; 0x14c6 <vfprintf+0x26e>
    14be:	30 e8       	ldi	r19, 0x80	; 128
    14c0:	f3 2a       	or	r15, r19
    14c2:	01 c0       	rjmp	.+2      	; 0x14c6 <vfprintf+0x26e>
    14c4:	9a 94       	dec	r9
    14c6:	99 20       	and	r9, r9
    14c8:	49 f0       	breq	.+18     	; 0x14dc <vfprintf+0x284>
    14ca:	e2 e0       	ldi	r30, 0x02	; 2
    14cc:	f0 e0       	ldi	r31, 0x00	; 0
    14ce:	ec 0f       	add	r30, r28
    14d0:	fd 1f       	adc	r31, r29
    14d2:	e9 0d       	add	r30, r9
    14d4:	f1 1d       	adc	r31, r1
    14d6:	80 81       	ld	r24, Z
    14d8:	80 33       	cpi	r24, 0x30	; 48
    14da:	a1 f3       	breq	.-24     	; 0x14c4 <vfprintf+0x26c>
    14dc:	f7 fe       	sbrs	r15, 7
    14de:	0a c0       	rjmp	.+20     	; 0x14f4 <vfprintf+0x29c>
    14e0:	b9 2c       	mov	r11, r9
    14e2:	b3 94       	inc	r11
    14e4:	89 2d       	mov	r24, r9
    14e6:	90 e0       	ldi	r25, 0x00	; 0
    14e8:	c8 16       	cp	r12, r24
    14ea:	d9 06       	cpc	r13, r25
    14ec:	14 f0       	brlt	.+4      	; 0x14f2 <vfprintf+0x29a>
    14ee:	99 24       	eor	r9, r9
    14f0:	01 c0       	rjmp	.+2      	; 0x14f4 <vfprintf+0x29c>
    14f2:	9c 18       	sub	r9, r12
    14f4:	f7 fc       	sbrc	r15, 7
    14f6:	03 c0       	rjmp	.+6      	; 0x14fe <vfprintf+0x2a6>
    14f8:	25 e0       	ldi	r18, 0x05	; 5
    14fa:	30 e0       	ldi	r19, 0x00	; 0
    14fc:	09 c0       	rjmp	.+18     	; 0x1510 <vfprintf+0x2b8>
    14fe:	1c 14       	cp	r1, r12
    1500:	1d 04       	cpc	r1, r13
    1502:	1c f0       	brlt	.+6      	; 0x150a <vfprintf+0x2b2>
    1504:	21 e0       	ldi	r18, 0x01	; 1
    1506:	30 e0       	ldi	r19, 0x00	; 0
    1508:	03 c0       	rjmp	.+6      	; 0x1510 <vfprintf+0x2b8>
    150a:	96 01       	movw	r18, r12
    150c:	2f 5f       	subi	r18, 0xFF	; 255
    150e:	3f 4f       	sbci	r19, 0xFF	; 255
    1510:	11 23       	and	r17, r17
    1512:	11 f0       	breq	.+4      	; 0x1518 <vfprintf+0x2c0>
    1514:	2f 5f       	subi	r18, 0xFF	; 255
    1516:	3f 4f       	sbci	r19, 0xFF	; 255
    1518:	99 20       	and	r9, r9
    151a:	29 f0       	breq	.+10     	; 0x1526 <vfprintf+0x2ce>
    151c:	89 2d       	mov	r24, r9
    151e:	90 e0       	ldi	r25, 0x00	; 0
    1520:	01 96       	adiw	r24, 0x01	; 1
    1522:	28 0f       	add	r18, r24
    1524:	39 1f       	adc	r19, r25
    1526:	88 2d       	mov	r24, r8
    1528:	90 e0       	ldi	r25, 0x00	; 0
    152a:	28 17       	cp	r18, r24
    152c:	39 07       	cpc	r19, r25
    152e:	14 f0       	brlt	.+4      	; 0x1534 <vfprintf+0x2dc>
    1530:	88 24       	eor	r8, r8
    1532:	01 c0       	rjmp	.+2      	; 0x1536 <vfprintf+0x2de>
    1534:	82 1a       	sub	r8, r18
    1536:	4f 2c       	mov	r4, r15
    1538:	55 24       	eor	r5, r5
    153a:	c2 01       	movw	r24, r4
    153c:	89 70       	andi	r24, 0x09	; 9
    153e:	90 70       	andi	r25, 0x00	; 0
    1540:	89 2b       	or	r24, r25
    1542:	39 f0       	breq	.+14     	; 0x1552 <vfprintf+0x2fa>
    1544:	08 c0       	rjmp	.+16     	; 0x1556 <vfprintf+0x2fe>
    1546:	80 e2       	ldi	r24, 0x20	; 32
    1548:	90 e0       	ldi	r25, 0x00	; 0
    154a:	b3 01       	movw	r22, r6
    154c:	0e 94 4b 0e 	call	0x1c96	; 0x1c96 <fputc>
    1550:	8a 94       	dec	r8
    1552:	88 20       	and	r8, r8
    1554:	c1 f7       	brne	.-16     	; 0x1546 <vfprintf+0x2ee>
    1556:	11 23       	and	r17, r17
    1558:	29 f0       	breq	.+10     	; 0x1564 <vfprintf+0x30c>
    155a:	81 2f       	mov	r24, r17
    155c:	90 e0       	ldi	r25, 0x00	; 0
    155e:	b3 01       	movw	r22, r6
    1560:	0e 94 4b 0e 	call	0x1c96	; 0x1c96 <fputc>
    1564:	43 fe       	sbrs	r4, 3
    1566:	07 c0       	rjmp	.+14     	; 0x1576 <vfprintf+0x31e>
    1568:	08 c0       	rjmp	.+16     	; 0x157a <vfprintf+0x322>
    156a:	80 e3       	ldi	r24, 0x30	; 48
    156c:	90 e0       	ldi	r25, 0x00	; 0
    156e:	b3 01       	movw	r22, r6
    1570:	0e 94 4b 0e 	call	0x1c96	; 0x1c96 <fputc>
    1574:	8a 94       	dec	r8
    1576:	88 20       	and	r8, r8
    1578:	c1 f7       	brne	.-16     	; 0x156a <vfprintf+0x312>
    157a:	f7 fe       	sbrs	r15, 7
    157c:	46 c0       	rjmp	.+140    	; 0x160a <vfprintf+0x3b2>
    157e:	86 01       	movw	r16, r12
    1580:	d7 fe       	sbrs	r13, 7
    1582:	02 c0       	rjmp	.+4      	; 0x1588 <vfprintf+0x330>
    1584:	00 e0       	ldi	r16, 0x00	; 0
    1586:	10 e0       	ldi	r17, 0x00	; 0
    1588:	76 01       	movw	r14, r12
    158a:	08 94       	sec
    158c:	e1 1c       	adc	r14, r1
    158e:	f1 1c       	adc	r15, r1
    1590:	e0 1a       	sub	r14, r16
    1592:	f1 0a       	sbc	r15, r17
    1594:	41 e0       	ldi	r20, 0x01	; 1
    1596:	50 e0       	ldi	r21, 0x00	; 0
    1598:	4c 0f       	add	r20, r28
    159a:	5d 1f       	adc	r21, r29
    159c:	e4 0e       	add	r14, r20
    159e:	f5 1e       	adc	r15, r21
    15a0:	26 01       	movw	r4, r12
    15a2:	4b 18       	sub	r4, r11
    15a4:	51 08       	sbc	r5, r1
    15a6:	89 2d       	mov	r24, r9
    15a8:	90 e0       	ldi	r25, 0x00	; 0
    15aa:	aa 24       	eor	r10, r10
    15ac:	bb 24       	eor	r11, r11
    15ae:	a8 1a       	sub	r10, r24
    15b0:	b9 0a       	sbc	r11, r25
    15b2:	5f ef       	ldi	r21, 0xFF	; 255
    15b4:	0f 3f       	cpi	r16, 0xFF	; 255
    15b6:	15 07       	cpc	r17, r21
    15b8:	29 f4       	brne	.+10     	; 0x15c4 <vfprintf+0x36c>
    15ba:	8e e2       	ldi	r24, 0x2E	; 46
    15bc:	90 e0       	ldi	r25, 0x00	; 0
    15be:	b3 01       	movw	r22, r6
    15c0:	0e 94 4b 0e 	call	0x1c96	; 0x1c96 <fputc>
    15c4:	c0 16       	cp	r12, r16
    15c6:	d1 06       	cpc	r13, r17
    15c8:	34 f0       	brlt	.+12     	; 0x15d6 <vfprintf+0x37e>
    15ca:	40 16       	cp	r4, r16
    15cc:	51 06       	cpc	r5, r17
    15ce:	1c f4       	brge	.+6      	; 0x15d6 <vfprintf+0x37e>
    15d0:	f7 01       	movw	r30, r14
    15d2:	80 81       	ld	r24, Z
    15d4:	01 c0       	rjmp	.+2      	; 0x15d8 <vfprintf+0x380>
    15d6:	80 e3       	ldi	r24, 0x30	; 48
    15d8:	01 50       	subi	r16, 0x01	; 1
    15da:	10 40       	sbci	r17, 0x00	; 0
    15dc:	08 94       	sec
    15de:	e1 1c       	adc	r14, r1
    15e0:	f1 1c       	adc	r15, r1
    15e2:	0a 15       	cp	r16, r10
    15e4:	1b 05       	cpc	r17, r11
    15e6:	2c f0       	brlt	.+10     	; 0x15f2 <vfprintf+0x39a>
    15e8:	90 e0       	ldi	r25, 0x00	; 0
    15ea:	b3 01       	movw	r22, r6
    15ec:	0e 94 4b 0e 	call	0x1c96	; 0x1c96 <fputc>
    15f0:	e0 cf       	rjmp	.-64     	; 0x15b2 <vfprintf+0x35a>
    15f2:	0c 15       	cp	r16, r12
    15f4:	1d 05       	cpc	r17, r13
    15f6:	39 f4       	brne	.+14     	; 0x1606 <vfprintf+0x3ae>
    15f8:	9a 81       	ldd	r25, Y+2	; 0x02
    15fa:	96 33       	cpi	r25, 0x36	; 54
    15fc:	18 f4       	brcc	.+6      	; 0x1604 <vfprintf+0x3ac>
    15fe:	95 33       	cpi	r25, 0x35	; 53
    1600:	11 f4       	brne	.+4      	; 0x1606 <vfprintf+0x3ae>
    1602:	24 fe       	sbrs	r2, 4
    1604:	81 e3       	ldi	r24, 0x31	; 49
    1606:	90 e0       	ldi	r25, 0x00	; 0
    1608:	4b c0       	rjmp	.+150    	; 0x16a0 <vfprintf+0x448>
    160a:	8a 81       	ldd	r24, Y+2	; 0x02
    160c:	81 33       	cpi	r24, 0x31	; 49
    160e:	09 f0       	breq	.+2      	; 0x1612 <vfprintf+0x3ba>
    1610:	0f 7e       	andi	r16, 0xEF	; 239
    1612:	90 e0       	ldi	r25, 0x00	; 0
    1614:	b3 01       	movw	r22, r6
    1616:	0e 94 4b 0e 	call	0x1c96	; 0x1c96 <fputc>
    161a:	99 20       	and	r9, r9
    161c:	a1 f0       	breq	.+40     	; 0x1646 <vfprintf+0x3ee>
    161e:	8e e2       	ldi	r24, 0x2E	; 46
    1620:	90 e0       	ldi	r25, 0x00	; 0
    1622:	b3 01       	movw	r22, r6
    1624:	0e 94 4b 0e 	call	0x1c96	; 0x1c96 <fputc>
    1628:	12 e0       	ldi	r17, 0x02	; 2
    162a:	e1 e0       	ldi	r30, 0x01	; 1
    162c:	f0 e0       	ldi	r31, 0x00	; 0
    162e:	ec 0f       	add	r30, r28
    1630:	fd 1f       	adc	r31, r29
    1632:	e1 0f       	add	r30, r17
    1634:	f1 1d       	adc	r31, r1
    1636:	1f 5f       	subi	r17, 0xFF	; 255
    1638:	80 81       	ld	r24, Z
    163a:	90 e0       	ldi	r25, 0x00	; 0
    163c:	b3 01       	movw	r22, r6
    163e:	0e 94 4b 0e 	call	0x1c96	; 0x1c96 <fputc>
    1642:	9a 94       	dec	r9
    1644:	91 f7       	brne	.-28     	; 0x162a <vfprintf+0x3d2>
    1646:	44 fc       	sbrc	r4, 4
    1648:	03 c0       	rjmp	.+6      	; 0x1650 <vfprintf+0x3f8>
    164a:	85 e6       	ldi	r24, 0x65	; 101
    164c:	90 e0       	ldi	r25, 0x00	; 0
    164e:	02 c0       	rjmp	.+4      	; 0x1654 <vfprintf+0x3fc>
    1650:	85 e4       	ldi	r24, 0x45	; 69
    1652:	90 e0       	ldi	r25, 0x00	; 0
    1654:	b3 01       	movw	r22, r6
    1656:	0e 94 4b 0e 	call	0x1c96	; 0x1c96 <fputc>
    165a:	d7 fc       	sbrc	r13, 7
    165c:	05 c0       	rjmp	.+10     	; 0x1668 <vfprintf+0x410>
    165e:	c1 14       	cp	r12, r1
    1660:	d1 04       	cpc	r13, r1
    1662:	41 f4       	brne	.+16     	; 0x1674 <vfprintf+0x41c>
    1664:	04 ff       	sbrs	r16, 4
    1666:	06 c0       	rjmp	.+12     	; 0x1674 <vfprintf+0x41c>
    1668:	d0 94       	com	r13
    166a:	c1 94       	neg	r12
    166c:	d1 08       	sbc	r13, r1
    166e:	d3 94       	inc	r13
    1670:	8d e2       	ldi	r24, 0x2D	; 45
    1672:	01 c0       	rjmp	.+2      	; 0x1676 <vfprintf+0x41e>
    1674:	8b e2       	ldi	r24, 0x2B	; 43
    1676:	90 e0       	ldi	r25, 0x00	; 0
    1678:	b3 01       	movw	r22, r6
    167a:	0e 94 4b 0e 	call	0x1c96	; 0x1c96 <fputc>
    167e:	80 e3       	ldi	r24, 0x30	; 48
    1680:	05 c0       	rjmp	.+10     	; 0x168c <vfprintf+0x434>
    1682:	8f 5f       	subi	r24, 0xFF	; 255
    1684:	26 ef       	ldi	r18, 0xF6	; 246
    1686:	3f ef       	ldi	r19, 0xFF	; 255
    1688:	c2 0e       	add	r12, r18
    168a:	d3 1e       	adc	r13, r19
    168c:	3a e0       	ldi	r19, 0x0A	; 10
    168e:	c3 16       	cp	r12, r19
    1690:	d1 04       	cpc	r13, r1
    1692:	bc f7       	brge	.-18     	; 0x1682 <vfprintf+0x42a>
    1694:	90 e0       	ldi	r25, 0x00	; 0
    1696:	b3 01       	movw	r22, r6
    1698:	0e 94 4b 0e 	call	0x1c96	; 0x1c96 <fputc>
    169c:	c6 01       	movw	r24, r12
    169e:	c0 96       	adiw	r24, 0x30	; 48
    16a0:	b3 01       	movw	r22, r6
    16a2:	0e 94 4b 0e 	call	0x1c96	; 0x1c96 <fputc>
    16a6:	cc 84       	ldd	r12, Y+12	; 0x0c
    16a8:	dd 84       	ldd	r13, Y+13	; 0x0d
    16aa:	52 c1       	rjmp	.+676    	; 0x1950 <vfprintf+0x6f8>
    16ac:	93 36       	cpi	r25, 0x63	; 99
    16ae:	31 f0       	breq	.+12     	; 0x16bc <vfprintf+0x464>
    16b0:	93 37       	cpi	r25, 0x73	; 115
    16b2:	99 f0       	breq	.+38     	; 0x16da <vfprintf+0x482>
    16b4:	93 35       	cpi	r25, 0x53	; 83
    16b6:	09 f0       	breq	.+2      	; 0x16ba <vfprintf+0x462>
    16b8:	59 c0       	rjmp	.+178    	; 0x176c <vfprintf+0x514>
    16ba:	23 c0       	rjmp	.+70     	; 0x1702 <vfprintf+0x4aa>
    16bc:	f6 01       	movw	r30, r12
    16be:	80 81       	ld	r24, Z
    16c0:	89 83       	std	Y+1, r24	; 0x01
    16c2:	5e 01       	movw	r10, r28
    16c4:	08 94       	sec
    16c6:	a1 1c       	adc	r10, r1
    16c8:	b1 1c       	adc	r11, r1
    16ca:	22 e0       	ldi	r18, 0x02	; 2
    16cc:	30 e0       	ldi	r19, 0x00	; 0
    16ce:	c2 0e       	add	r12, r18
    16d0:	d3 1e       	adc	r13, r19
    16d2:	21 e0       	ldi	r18, 0x01	; 1
    16d4:	e2 2e       	mov	r14, r18
    16d6:	f1 2c       	mov	r15, r1
    16d8:	12 c0       	rjmp	.+36     	; 0x16fe <vfprintf+0x4a6>
    16da:	f6 01       	movw	r30, r12
    16dc:	a0 80       	ld	r10, Z
    16de:	b1 80       	ldd	r11, Z+1	; 0x01
    16e0:	16 fd       	sbrc	r17, 6
    16e2:	03 c0       	rjmp	.+6      	; 0x16ea <vfprintf+0x492>
    16e4:	6f ef       	ldi	r22, 0xFF	; 255
    16e6:	7f ef       	ldi	r23, 0xFF	; 255
    16e8:	02 c0       	rjmp	.+4      	; 0x16ee <vfprintf+0x496>
    16ea:	69 2d       	mov	r22, r9
    16ec:	70 e0       	ldi	r23, 0x00	; 0
    16ee:	22 e0       	ldi	r18, 0x02	; 2
    16f0:	30 e0       	ldi	r19, 0x00	; 0
    16f2:	c2 0e       	add	r12, r18
    16f4:	d3 1e       	adc	r13, r19
    16f6:	c5 01       	movw	r24, r10
    16f8:	0e 94 f4 0d 	call	0x1be8	; 0x1be8 <strnlen>
    16fc:	7c 01       	movw	r14, r24
    16fe:	1f 77       	andi	r17, 0x7F	; 127
    1700:	13 c0       	rjmp	.+38     	; 0x1728 <vfprintf+0x4d0>
    1702:	f6 01       	movw	r30, r12
    1704:	a0 80       	ld	r10, Z
    1706:	b1 80       	ldd	r11, Z+1	; 0x01
    1708:	16 fd       	sbrc	r17, 6
    170a:	03 c0       	rjmp	.+6      	; 0x1712 <vfprintf+0x4ba>
    170c:	6f ef       	ldi	r22, 0xFF	; 255
    170e:	7f ef       	ldi	r23, 0xFF	; 255
    1710:	02 c0       	rjmp	.+4      	; 0x1716 <vfprintf+0x4be>
    1712:	69 2d       	mov	r22, r9
    1714:	70 e0       	ldi	r23, 0x00	; 0
    1716:	22 e0       	ldi	r18, 0x02	; 2
    1718:	30 e0       	ldi	r19, 0x00	; 0
    171a:	c2 0e       	add	r12, r18
    171c:	d3 1e       	adc	r13, r19
    171e:	c5 01       	movw	r24, r10
    1720:	0e 94 e9 0d 	call	0x1bd2	; 0x1bd2 <strnlen_P>
    1724:	7c 01       	movw	r14, r24
    1726:	10 68       	ori	r17, 0x80	; 128
    1728:	13 ff       	sbrs	r17, 3
    172a:	07 c0       	rjmp	.+14     	; 0x173a <vfprintf+0x4e2>
    172c:	1b c0       	rjmp	.+54     	; 0x1764 <vfprintf+0x50c>
    172e:	80 e2       	ldi	r24, 0x20	; 32
    1730:	90 e0       	ldi	r25, 0x00	; 0
    1732:	b3 01       	movw	r22, r6
    1734:	0e 94 4b 0e 	call	0x1c96	; 0x1c96 <fputc>
    1738:	8a 94       	dec	r8
    173a:	88 2d       	mov	r24, r8
    173c:	90 e0       	ldi	r25, 0x00	; 0
    173e:	e8 16       	cp	r14, r24
    1740:	f9 06       	cpc	r15, r25
    1742:	a8 f3       	brcs	.-22     	; 0x172e <vfprintf+0x4d6>
    1744:	0f c0       	rjmp	.+30     	; 0x1764 <vfprintf+0x50c>
    1746:	f5 01       	movw	r30, r10
    1748:	17 fd       	sbrc	r17, 7
    174a:	85 91       	lpm	r24, Z+
    174c:	17 ff       	sbrs	r17, 7
    174e:	81 91       	ld	r24, Z+
    1750:	5f 01       	movw	r10, r30
    1752:	90 e0       	ldi	r25, 0x00	; 0
    1754:	b3 01       	movw	r22, r6
    1756:	0e 94 4b 0e 	call	0x1c96	; 0x1c96 <fputc>
    175a:	81 10       	cpse	r8, r1
    175c:	8a 94       	dec	r8
    175e:	08 94       	sec
    1760:	e1 08       	sbc	r14, r1
    1762:	f1 08       	sbc	r15, r1
    1764:	e1 14       	cp	r14, r1
    1766:	f1 04       	cpc	r15, r1
    1768:	71 f7       	brne	.-36     	; 0x1746 <vfprintf+0x4ee>
    176a:	f2 c0       	rjmp	.+484    	; 0x1950 <vfprintf+0x6f8>
    176c:	94 36       	cpi	r25, 0x64	; 100
    176e:	11 f0       	breq	.+4      	; 0x1774 <vfprintf+0x51c>
    1770:	99 36       	cpi	r25, 0x69	; 105
    1772:	89 f5       	brne	.+98     	; 0x17d6 <vfprintf+0x57e>
    1774:	17 ff       	sbrs	r17, 7
    1776:	08 c0       	rjmp	.+16     	; 0x1788 <vfprintf+0x530>
    1778:	f6 01       	movw	r30, r12
    177a:	20 81       	ld	r18, Z
    177c:	31 81       	ldd	r19, Z+1	; 0x01
    177e:	42 81       	ldd	r20, Z+2	; 0x02
    1780:	53 81       	ldd	r21, Z+3	; 0x03
    1782:	84 e0       	ldi	r24, 0x04	; 4
    1784:	90 e0       	ldi	r25, 0x00	; 0
    1786:	0a c0       	rjmp	.+20     	; 0x179c <vfprintf+0x544>
    1788:	f6 01       	movw	r30, r12
    178a:	80 81       	ld	r24, Z
    178c:	91 81       	ldd	r25, Z+1	; 0x01
    178e:	9c 01       	movw	r18, r24
    1790:	44 27       	eor	r20, r20
    1792:	37 fd       	sbrc	r19, 7
    1794:	40 95       	com	r20
    1796:	54 2f       	mov	r21, r20
    1798:	82 e0       	ldi	r24, 0x02	; 2
    179a:	90 e0       	ldi	r25, 0x00	; 0
    179c:	c8 0e       	add	r12, r24
    179e:	d9 1e       	adc	r13, r25
    17a0:	9f e6       	ldi	r25, 0x6F	; 111
    17a2:	f9 2e       	mov	r15, r25
    17a4:	f1 22       	and	r15, r17
    17a6:	57 ff       	sbrs	r21, 7
    17a8:	09 c0       	rjmp	.+18     	; 0x17bc <vfprintf+0x564>
    17aa:	50 95       	com	r21
    17ac:	40 95       	com	r20
    17ae:	30 95       	com	r19
    17b0:	21 95       	neg	r18
    17b2:	3f 4f       	sbci	r19, 0xFF	; 255
    17b4:	4f 4f       	sbci	r20, 0xFF	; 255
    17b6:	5f 4f       	sbci	r21, 0xFF	; 255
    17b8:	90 e8       	ldi	r25, 0x80	; 128
    17ba:	f9 2a       	or	r15, r25
    17bc:	ca 01       	movw	r24, r20
    17be:	b9 01       	movw	r22, r18
    17c0:	ae 01       	movw	r20, r28
    17c2:	4f 5f       	subi	r20, 0xFF	; 255
    17c4:	5f 4f       	sbci	r21, 0xFF	; 255
    17c6:	2a e0       	ldi	r18, 0x0A	; 10
    17c8:	30 e0       	ldi	r19, 0x00	; 0
    17ca:	0e 94 c8 0e 	call	0x1d90	; 0x1d90 <__ultoa_invert>
    17ce:	e8 2e       	mov	r14, r24
    17d0:	e8 89       	ldd	r30, Y+16	; 0x10
    17d2:	ee 1a       	sub	r14, r30
    17d4:	41 c0       	rjmp	.+130    	; 0x1858 <vfprintf+0x600>
    17d6:	95 37       	cpi	r25, 0x75	; 117
    17d8:	21 f4       	brne	.+8      	; 0x17e2 <vfprintf+0x58a>
    17da:	1f 7e       	andi	r17, 0xEF	; 239
    17dc:	2a e0       	ldi	r18, 0x0A	; 10
    17de:	30 e0       	ldi	r19, 0x00	; 0
    17e0:	1c c0       	rjmp	.+56     	; 0x181a <vfprintf+0x5c2>
    17e2:	19 7f       	andi	r17, 0xF9	; 249
    17e4:	9f 36       	cpi	r25, 0x6F	; 111
    17e6:	61 f0       	breq	.+24     	; 0x1800 <vfprintf+0x5a8>
    17e8:	90 37       	cpi	r25, 0x70	; 112
    17ea:	20 f4       	brcc	.+8      	; 0x17f4 <vfprintf+0x59c>
    17ec:	98 35       	cpi	r25, 0x58	; 88
    17ee:	09 f0       	breq	.+2      	; 0x17f2 <vfprintf+0x59a>
    17f0:	b2 c0       	rjmp	.+356    	; 0x1956 <vfprintf+0x6fe>
    17f2:	0f c0       	rjmp	.+30     	; 0x1812 <vfprintf+0x5ba>
    17f4:	90 37       	cpi	r25, 0x70	; 112
    17f6:	39 f0       	breq	.+14     	; 0x1806 <vfprintf+0x5ae>
    17f8:	98 37       	cpi	r25, 0x78	; 120
    17fa:	09 f0       	breq	.+2      	; 0x17fe <vfprintf+0x5a6>
    17fc:	ac c0       	rjmp	.+344    	; 0x1956 <vfprintf+0x6fe>
    17fe:	04 c0       	rjmp	.+8      	; 0x1808 <vfprintf+0x5b0>
    1800:	28 e0       	ldi	r18, 0x08	; 8
    1802:	30 e0       	ldi	r19, 0x00	; 0
    1804:	0a c0       	rjmp	.+20     	; 0x181a <vfprintf+0x5c2>
    1806:	10 61       	ori	r17, 0x10	; 16
    1808:	14 fd       	sbrc	r17, 4
    180a:	14 60       	ori	r17, 0x04	; 4
    180c:	20 e1       	ldi	r18, 0x10	; 16
    180e:	30 e0       	ldi	r19, 0x00	; 0
    1810:	04 c0       	rjmp	.+8      	; 0x181a <vfprintf+0x5c2>
    1812:	14 fd       	sbrc	r17, 4
    1814:	16 60       	ori	r17, 0x06	; 6
    1816:	20 e1       	ldi	r18, 0x10	; 16
    1818:	32 e0       	ldi	r19, 0x02	; 2
    181a:	17 ff       	sbrs	r17, 7
    181c:	08 c0       	rjmp	.+16     	; 0x182e <vfprintf+0x5d6>
    181e:	f6 01       	movw	r30, r12
    1820:	60 81       	ld	r22, Z
    1822:	71 81       	ldd	r23, Z+1	; 0x01
    1824:	82 81       	ldd	r24, Z+2	; 0x02
    1826:	93 81       	ldd	r25, Z+3	; 0x03
    1828:	44 e0       	ldi	r20, 0x04	; 4
    182a:	50 e0       	ldi	r21, 0x00	; 0
    182c:	08 c0       	rjmp	.+16     	; 0x183e <vfprintf+0x5e6>
    182e:	f6 01       	movw	r30, r12
    1830:	80 81       	ld	r24, Z
    1832:	91 81       	ldd	r25, Z+1	; 0x01
    1834:	bc 01       	movw	r22, r24
    1836:	80 e0       	ldi	r24, 0x00	; 0
    1838:	90 e0       	ldi	r25, 0x00	; 0
    183a:	42 e0       	ldi	r20, 0x02	; 2
    183c:	50 e0       	ldi	r21, 0x00	; 0
    183e:	c4 0e       	add	r12, r20
    1840:	d5 1e       	adc	r13, r21
    1842:	ae 01       	movw	r20, r28
    1844:	4f 5f       	subi	r20, 0xFF	; 255
    1846:	5f 4f       	sbci	r21, 0xFF	; 255
    1848:	0e 94 c8 0e 	call	0x1d90	; 0x1d90 <__ultoa_invert>
    184c:	e8 2e       	mov	r14, r24
    184e:	58 89       	ldd	r21, Y+16	; 0x10
    1850:	e5 1a       	sub	r14, r21
    1852:	8f e7       	ldi	r24, 0x7F	; 127
    1854:	f8 2e       	mov	r15, r24
    1856:	f1 22       	and	r15, r17
    1858:	f6 fe       	sbrs	r15, 6
    185a:	0b c0       	rjmp	.+22     	; 0x1872 <vfprintf+0x61a>
    185c:	8e ef       	ldi	r24, 0xFE	; 254
    185e:	f8 22       	and	r15, r24
    1860:	e9 14       	cp	r14, r9
    1862:	38 f4       	brcc	.+14     	; 0x1872 <vfprintf+0x61a>
    1864:	f4 fe       	sbrs	r15, 4
    1866:	07 c0       	rjmp	.+14     	; 0x1876 <vfprintf+0x61e>
    1868:	f2 fc       	sbrc	r15, 2
    186a:	05 c0       	rjmp	.+10     	; 0x1876 <vfprintf+0x61e>
    186c:	9f ee       	ldi	r25, 0xEF	; 239
    186e:	f9 22       	and	r15, r25
    1870:	02 c0       	rjmp	.+4      	; 0x1876 <vfprintf+0x61e>
    1872:	1e 2d       	mov	r17, r14
    1874:	01 c0       	rjmp	.+2      	; 0x1878 <vfprintf+0x620>
    1876:	19 2d       	mov	r17, r9
    1878:	f4 fe       	sbrs	r15, 4
    187a:	0d c0       	rjmp	.+26     	; 0x1896 <vfprintf+0x63e>
    187c:	fe 01       	movw	r30, r28
    187e:	ee 0d       	add	r30, r14
    1880:	f1 1d       	adc	r31, r1
    1882:	80 81       	ld	r24, Z
    1884:	80 33       	cpi	r24, 0x30	; 48
    1886:	19 f4       	brne	.+6      	; 0x188e <vfprintf+0x636>
    1888:	e9 ee       	ldi	r30, 0xE9	; 233
    188a:	fe 22       	and	r15, r30
    188c:	08 c0       	rjmp	.+16     	; 0x189e <vfprintf+0x646>
    188e:	1f 5f       	subi	r17, 0xFF	; 255
    1890:	f2 fe       	sbrs	r15, 2
    1892:	05 c0       	rjmp	.+10     	; 0x189e <vfprintf+0x646>
    1894:	03 c0       	rjmp	.+6      	; 0x189c <vfprintf+0x644>
    1896:	8f 2d       	mov	r24, r15
    1898:	86 78       	andi	r24, 0x86	; 134
    189a:	09 f0       	breq	.+2      	; 0x189e <vfprintf+0x646>
    189c:	1f 5f       	subi	r17, 0xFF	; 255
    189e:	0f 2d       	mov	r16, r15
    18a0:	f3 fc       	sbrc	r15, 3
    18a2:	14 c0       	rjmp	.+40     	; 0x18cc <vfprintf+0x674>
    18a4:	f0 fe       	sbrs	r15, 0
    18a6:	0f c0       	rjmp	.+30     	; 0x18c6 <vfprintf+0x66e>
    18a8:	18 15       	cp	r17, r8
    18aa:	10 f0       	brcs	.+4      	; 0x18b0 <vfprintf+0x658>
    18ac:	9e 2c       	mov	r9, r14
    18ae:	0b c0       	rjmp	.+22     	; 0x18c6 <vfprintf+0x66e>
    18b0:	9e 2c       	mov	r9, r14
    18b2:	98 0c       	add	r9, r8
    18b4:	91 1a       	sub	r9, r17
    18b6:	18 2d       	mov	r17, r8
    18b8:	06 c0       	rjmp	.+12     	; 0x18c6 <vfprintf+0x66e>
    18ba:	80 e2       	ldi	r24, 0x20	; 32
    18bc:	90 e0       	ldi	r25, 0x00	; 0
    18be:	b3 01       	movw	r22, r6
    18c0:	0e 94 4b 0e 	call	0x1c96	; 0x1c96 <fputc>
    18c4:	1f 5f       	subi	r17, 0xFF	; 255
    18c6:	18 15       	cp	r17, r8
    18c8:	c0 f3       	brcs	.-16     	; 0x18ba <vfprintf+0x662>
    18ca:	04 c0       	rjmp	.+8      	; 0x18d4 <vfprintf+0x67c>
    18cc:	18 15       	cp	r17, r8
    18ce:	10 f4       	brcc	.+4      	; 0x18d4 <vfprintf+0x67c>
    18d0:	81 1a       	sub	r8, r17
    18d2:	01 c0       	rjmp	.+2      	; 0x18d6 <vfprintf+0x67e>
    18d4:	88 24       	eor	r8, r8
    18d6:	04 ff       	sbrs	r16, 4
    18d8:	0f c0       	rjmp	.+30     	; 0x18f8 <vfprintf+0x6a0>
    18da:	80 e3       	ldi	r24, 0x30	; 48
    18dc:	90 e0       	ldi	r25, 0x00	; 0
    18de:	b3 01       	movw	r22, r6
    18e0:	0e 94 4b 0e 	call	0x1c96	; 0x1c96 <fputc>
    18e4:	02 ff       	sbrs	r16, 2
    18e6:	1d c0       	rjmp	.+58     	; 0x1922 <vfprintf+0x6ca>
    18e8:	01 fd       	sbrc	r16, 1
    18ea:	03 c0       	rjmp	.+6      	; 0x18f2 <vfprintf+0x69a>
    18ec:	88 e7       	ldi	r24, 0x78	; 120
    18ee:	90 e0       	ldi	r25, 0x00	; 0
    18f0:	0e c0       	rjmp	.+28     	; 0x190e <vfprintf+0x6b6>
    18f2:	88 e5       	ldi	r24, 0x58	; 88
    18f4:	90 e0       	ldi	r25, 0x00	; 0
    18f6:	0b c0       	rjmp	.+22     	; 0x190e <vfprintf+0x6b6>
    18f8:	80 2f       	mov	r24, r16
    18fa:	86 78       	andi	r24, 0x86	; 134
    18fc:	91 f0       	breq	.+36     	; 0x1922 <vfprintf+0x6ca>
    18fe:	01 ff       	sbrs	r16, 1
    1900:	02 c0       	rjmp	.+4      	; 0x1906 <vfprintf+0x6ae>
    1902:	8b e2       	ldi	r24, 0x2B	; 43
    1904:	01 c0       	rjmp	.+2      	; 0x1908 <vfprintf+0x6b0>
    1906:	80 e2       	ldi	r24, 0x20	; 32
    1908:	f7 fc       	sbrc	r15, 7
    190a:	8d e2       	ldi	r24, 0x2D	; 45
    190c:	90 e0       	ldi	r25, 0x00	; 0
    190e:	b3 01       	movw	r22, r6
    1910:	0e 94 4b 0e 	call	0x1c96	; 0x1c96 <fputc>
    1914:	06 c0       	rjmp	.+12     	; 0x1922 <vfprintf+0x6ca>
    1916:	80 e3       	ldi	r24, 0x30	; 48
    1918:	90 e0       	ldi	r25, 0x00	; 0
    191a:	b3 01       	movw	r22, r6
    191c:	0e 94 4b 0e 	call	0x1c96	; 0x1c96 <fputc>
    1920:	9a 94       	dec	r9
    1922:	e9 14       	cp	r14, r9
    1924:	c0 f3       	brcs	.-16     	; 0x1916 <vfprintf+0x6be>
    1926:	ea 94       	dec	r14
    1928:	e1 e0       	ldi	r30, 0x01	; 1
    192a:	f0 e0       	ldi	r31, 0x00	; 0
    192c:	ec 0f       	add	r30, r28
    192e:	fd 1f       	adc	r31, r29
    1930:	ee 0d       	add	r30, r14
    1932:	f1 1d       	adc	r31, r1
    1934:	80 81       	ld	r24, Z
    1936:	90 e0       	ldi	r25, 0x00	; 0
    1938:	b3 01       	movw	r22, r6
    193a:	0e 94 4b 0e 	call	0x1c96	; 0x1c96 <fputc>
    193e:	ee 20       	and	r14, r14
    1940:	91 f7       	brne	.-28     	; 0x1926 <vfprintf+0x6ce>
    1942:	06 c0       	rjmp	.+12     	; 0x1950 <vfprintf+0x6f8>
    1944:	80 e2       	ldi	r24, 0x20	; 32
    1946:	90 e0       	ldi	r25, 0x00	; 0
    1948:	b3 01       	movw	r22, r6
    194a:	0e 94 4b 0e 	call	0x1c96	; 0x1c96 <fputc>
    194e:	8a 94       	dec	r8
    1950:	88 20       	and	r8, r8
    1952:	c1 f7       	brne	.-16     	; 0x1944 <vfprintf+0x6ec>
    1954:	99 cc       	rjmp	.-1742   	; 0x1288 <vfprintf+0x30>
    1956:	f3 01       	movw	r30, r6
    1958:	66 81       	ldd	r22, Z+6	; 0x06
    195a:	77 81       	ldd	r23, Z+7	; 0x07
    195c:	cb 01       	movw	r24, r22
    195e:	61 96       	adiw	r28, 0x11	; 17
    1960:	e2 e1       	ldi	r30, 0x12	; 18
    1962:	0c 94 f6 0c 	jmp	0x19ec	; 0x19ec <__epilogue_restores__>

00001966 <__udivmodhi4>:
    1966:	aa 1b       	sub	r26, r26
    1968:	bb 1b       	sub	r27, r27
    196a:	51 e1       	ldi	r21, 0x11	; 17
    196c:	07 c0       	rjmp	.+14     	; 0x197c <__udivmodhi4_ep>

0000196e <__udivmodhi4_loop>:
    196e:	aa 1f       	adc	r26, r26
    1970:	bb 1f       	adc	r27, r27
    1972:	a6 17       	cp	r26, r22
    1974:	b7 07       	cpc	r27, r23
    1976:	10 f0       	brcs	.+4      	; 0x197c <__udivmodhi4_ep>
    1978:	a6 1b       	sub	r26, r22
    197a:	b7 0b       	sbc	r27, r23

0000197c <__udivmodhi4_ep>:
    197c:	88 1f       	adc	r24, r24
    197e:	99 1f       	adc	r25, r25
    1980:	5a 95       	dec	r21
    1982:	a9 f7       	brne	.-22     	; 0x196e <__udivmodhi4_loop>
    1984:	80 95       	com	r24
    1986:	90 95       	com	r25
    1988:	bc 01       	movw	r22, r24
    198a:	cd 01       	movw	r24, r26
    198c:	08 95       	ret

0000198e <__divmodhi4>:
    198e:	97 fb       	bst	r25, 7
    1990:	09 2e       	mov	r0, r25
    1992:	07 26       	eor	r0, r23
    1994:	0a d0       	rcall	.+20     	; 0x19aa <__divmodhi4_neg1>
    1996:	77 fd       	sbrc	r23, 7
    1998:	04 d0       	rcall	.+8      	; 0x19a2 <__divmodhi4_neg2>
    199a:	e5 df       	rcall	.-54     	; 0x1966 <__udivmodhi4>
    199c:	06 d0       	rcall	.+12     	; 0x19aa <__divmodhi4_neg1>
    199e:	00 20       	and	r0, r0
    19a0:	1a f4       	brpl	.+6      	; 0x19a8 <__divmodhi4_exit>

000019a2 <__divmodhi4_neg2>:
    19a2:	70 95       	com	r23
    19a4:	61 95       	neg	r22
    19a6:	7f 4f       	sbci	r23, 0xFF	; 255

000019a8 <__divmodhi4_exit>:
    19a8:	08 95       	ret

000019aa <__divmodhi4_neg1>:
    19aa:	f6 f7       	brtc	.-4      	; 0x19a8 <__divmodhi4_exit>
    19ac:	90 95       	com	r25
    19ae:	81 95       	neg	r24
    19b0:	9f 4f       	sbci	r25, 0xFF	; 255
    19b2:	08 95       	ret

000019b4 <__prologue_saves__>:
    19b4:	2f 92       	push	r2
    19b6:	3f 92       	push	r3
    19b8:	4f 92       	push	r4
    19ba:	5f 92       	push	r5
    19bc:	6f 92       	push	r6
    19be:	7f 92       	push	r7
    19c0:	8f 92       	push	r8
    19c2:	9f 92       	push	r9
    19c4:	af 92       	push	r10
    19c6:	bf 92       	push	r11
    19c8:	cf 92       	push	r12
    19ca:	df 92       	push	r13
    19cc:	ef 92       	push	r14
    19ce:	ff 92       	push	r15
    19d0:	0f 93       	push	r16
    19d2:	1f 93       	push	r17
    19d4:	cf 93       	push	r28
    19d6:	df 93       	push	r29
    19d8:	cd b7       	in	r28, 0x3d	; 61
    19da:	de b7       	in	r29, 0x3e	; 62
    19dc:	ca 1b       	sub	r28, r26
    19de:	db 0b       	sbc	r29, r27
    19e0:	0f b6       	in	r0, 0x3f	; 63
    19e2:	f8 94       	cli
    19e4:	de bf       	out	0x3e, r29	; 62
    19e6:	0f be       	out	0x3f, r0	; 63
    19e8:	cd bf       	out	0x3d, r28	; 61
    19ea:	09 94       	ijmp

000019ec <__epilogue_restores__>:
    19ec:	2a 88       	ldd	r2, Y+18	; 0x12
    19ee:	39 88       	ldd	r3, Y+17	; 0x11
    19f0:	48 88       	ldd	r4, Y+16	; 0x10
    19f2:	5f 84       	ldd	r5, Y+15	; 0x0f
    19f4:	6e 84       	ldd	r6, Y+14	; 0x0e
    19f6:	7d 84       	ldd	r7, Y+13	; 0x0d
    19f8:	8c 84       	ldd	r8, Y+12	; 0x0c
    19fa:	9b 84       	ldd	r9, Y+11	; 0x0b
    19fc:	aa 84       	ldd	r10, Y+10	; 0x0a
    19fe:	b9 84       	ldd	r11, Y+9	; 0x09
    1a00:	c8 84       	ldd	r12, Y+8	; 0x08
    1a02:	df 80       	ldd	r13, Y+7	; 0x07
    1a04:	ee 80       	ldd	r14, Y+6	; 0x06
    1a06:	fd 80       	ldd	r15, Y+5	; 0x05
    1a08:	0c 81       	ldd	r16, Y+4	; 0x04
    1a0a:	1b 81       	ldd	r17, Y+3	; 0x03
    1a0c:	aa 81       	ldd	r26, Y+2	; 0x02
    1a0e:	b9 81       	ldd	r27, Y+1	; 0x01
    1a10:	ce 0f       	add	r28, r30
    1a12:	d1 1d       	adc	r29, r1
    1a14:	0f b6       	in	r0, 0x3f	; 63
    1a16:	f8 94       	cli
    1a18:	de bf       	out	0x3e, r29	; 62
    1a1a:	0f be       	out	0x3f, r0	; 63
    1a1c:	cd bf       	out	0x3d, r28	; 61
    1a1e:	ed 01       	movw	r28, r26
    1a20:	08 95       	ret

00001a22 <__ftoa_engine>:
    1a22:	28 30       	cpi	r18, 0x08	; 8
    1a24:	08 f0       	brcs	.+2      	; 0x1a28 <__ftoa_engine+0x6>
    1a26:	27 e0       	ldi	r18, 0x07	; 7
    1a28:	33 27       	eor	r19, r19
    1a2a:	da 01       	movw	r26, r20
    1a2c:	99 0f       	add	r25, r25
    1a2e:	31 1d       	adc	r19, r1
    1a30:	87 fd       	sbrc	r24, 7
    1a32:	91 60       	ori	r25, 0x01	; 1
    1a34:	00 96       	adiw	r24, 0x00	; 0
    1a36:	61 05       	cpc	r22, r1
    1a38:	71 05       	cpc	r23, r1
    1a3a:	39 f4       	brne	.+14     	; 0x1a4a <__ftoa_engine+0x28>
    1a3c:	32 60       	ori	r19, 0x02	; 2
    1a3e:	2e 5f       	subi	r18, 0xFE	; 254
    1a40:	3d 93       	st	X+, r19
    1a42:	30 e3       	ldi	r19, 0x30	; 48
    1a44:	2a 95       	dec	r18
    1a46:	e1 f7       	brne	.-8      	; 0x1a40 <__ftoa_engine+0x1e>
    1a48:	08 95       	ret
    1a4a:	9f 3f       	cpi	r25, 0xFF	; 255
    1a4c:	30 f0       	brcs	.+12     	; 0x1a5a <__ftoa_engine+0x38>
    1a4e:	80 38       	cpi	r24, 0x80	; 128
    1a50:	71 05       	cpc	r23, r1
    1a52:	61 05       	cpc	r22, r1
    1a54:	09 f0       	breq	.+2      	; 0x1a58 <__ftoa_engine+0x36>
    1a56:	3c 5f       	subi	r19, 0xFC	; 252
    1a58:	3c 5f       	subi	r19, 0xFC	; 252
    1a5a:	3d 93       	st	X+, r19
    1a5c:	91 30       	cpi	r25, 0x01	; 1
    1a5e:	08 f0       	brcs	.+2      	; 0x1a62 <__ftoa_engine+0x40>
    1a60:	80 68       	ori	r24, 0x80	; 128
    1a62:	91 1d       	adc	r25, r1
    1a64:	df 93       	push	r29
    1a66:	cf 93       	push	r28
    1a68:	1f 93       	push	r17
    1a6a:	0f 93       	push	r16
    1a6c:	ff 92       	push	r15
    1a6e:	ef 92       	push	r14
    1a70:	19 2f       	mov	r17, r25
    1a72:	98 7f       	andi	r25, 0xF8	; 248
    1a74:	96 95       	lsr	r25
    1a76:	e9 2f       	mov	r30, r25
    1a78:	96 95       	lsr	r25
    1a7a:	96 95       	lsr	r25
    1a7c:	e9 0f       	add	r30, r25
    1a7e:	ff 27       	eor	r31, r31
    1a80:	e6 53       	subi	r30, 0x36	; 54
    1a82:	ff 4f       	sbci	r31, 0xFF	; 255
    1a84:	99 27       	eor	r25, r25
    1a86:	33 27       	eor	r19, r19
    1a88:	ee 24       	eor	r14, r14
    1a8a:	ff 24       	eor	r15, r15
    1a8c:	a7 01       	movw	r20, r14
    1a8e:	e7 01       	movw	r28, r14
    1a90:	05 90       	lpm	r0, Z+
    1a92:	08 94       	sec
    1a94:	07 94       	ror	r0
    1a96:	28 f4       	brcc	.+10     	; 0x1aa2 <__ftoa_engine+0x80>
    1a98:	36 0f       	add	r19, r22
    1a9a:	e7 1e       	adc	r14, r23
    1a9c:	f8 1e       	adc	r15, r24
    1a9e:	49 1f       	adc	r20, r25
    1aa0:	51 1d       	adc	r21, r1
    1aa2:	66 0f       	add	r22, r22
    1aa4:	77 1f       	adc	r23, r23
    1aa6:	88 1f       	adc	r24, r24
    1aa8:	99 1f       	adc	r25, r25
    1aaa:	06 94       	lsr	r0
    1aac:	a1 f7       	brne	.-24     	; 0x1a96 <__ftoa_engine+0x74>
    1aae:	05 90       	lpm	r0, Z+
    1ab0:	07 94       	ror	r0
    1ab2:	28 f4       	brcc	.+10     	; 0x1abe <__ftoa_engine+0x9c>
    1ab4:	e7 0e       	add	r14, r23
    1ab6:	f8 1e       	adc	r15, r24
    1ab8:	49 1f       	adc	r20, r25
    1aba:	56 1f       	adc	r21, r22
    1abc:	c1 1d       	adc	r28, r1
    1abe:	77 0f       	add	r23, r23
    1ac0:	88 1f       	adc	r24, r24
    1ac2:	99 1f       	adc	r25, r25
    1ac4:	66 1f       	adc	r22, r22
    1ac6:	06 94       	lsr	r0
    1ac8:	a1 f7       	brne	.-24     	; 0x1ab2 <__ftoa_engine+0x90>
    1aca:	05 90       	lpm	r0, Z+
    1acc:	07 94       	ror	r0
    1ace:	28 f4       	brcc	.+10     	; 0x1ada <__ftoa_engine+0xb8>
    1ad0:	f8 0e       	add	r15, r24
    1ad2:	49 1f       	adc	r20, r25
    1ad4:	56 1f       	adc	r21, r22
    1ad6:	c7 1f       	adc	r28, r23
    1ad8:	d1 1d       	adc	r29, r1
    1ada:	88 0f       	add	r24, r24
    1adc:	99 1f       	adc	r25, r25
    1ade:	66 1f       	adc	r22, r22
    1ae0:	77 1f       	adc	r23, r23
    1ae2:	06 94       	lsr	r0
    1ae4:	a1 f7       	brne	.-24     	; 0x1ace <__ftoa_engine+0xac>
    1ae6:	05 90       	lpm	r0, Z+
    1ae8:	07 94       	ror	r0
    1aea:	20 f4       	brcc	.+8      	; 0x1af4 <__ftoa_engine+0xd2>
    1aec:	49 0f       	add	r20, r25
    1aee:	56 1f       	adc	r21, r22
    1af0:	c7 1f       	adc	r28, r23
    1af2:	d8 1f       	adc	r29, r24
    1af4:	99 0f       	add	r25, r25
    1af6:	66 1f       	adc	r22, r22
    1af8:	77 1f       	adc	r23, r23
    1afa:	88 1f       	adc	r24, r24
    1afc:	06 94       	lsr	r0
    1afe:	a9 f7       	brne	.-22     	; 0x1aea <__ftoa_engine+0xc8>
    1b00:	84 91       	lpm	r24, Z+
    1b02:	10 95       	com	r17
    1b04:	17 70       	andi	r17, 0x07	; 7
    1b06:	41 f0       	breq	.+16     	; 0x1b18 <__ftoa_engine+0xf6>
    1b08:	d6 95       	lsr	r29
    1b0a:	c7 95       	ror	r28
    1b0c:	57 95       	ror	r21
    1b0e:	47 95       	ror	r20
    1b10:	f7 94       	ror	r15
    1b12:	e7 94       	ror	r14
    1b14:	1a 95       	dec	r17
    1b16:	c1 f7       	brne	.-16     	; 0x1b08 <__ftoa_engine+0xe6>
    1b18:	e0 e7       	ldi	r30, 0x70	; 112
    1b1a:	f0 e0       	ldi	r31, 0x00	; 0
    1b1c:	68 94       	set
    1b1e:	15 90       	lpm	r1, Z+
    1b20:	15 91       	lpm	r17, Z+
    1b22:	35 91       	lpm	r19, Z+
    1b24:	65 91       	lpm	r22, Z+
    1b26:	95 91       	lpm	r25, Z+
    1b28:	05 90       	lpm	r0, Z+
    1b2a:	7f e2       	ldi	r23, 0x2F	; 47
    1b2c:	73 95       	inc	r23
    1b2e:	e1 18       	sub	r14, r1
    1b30:	f1 0a       	sbc	r15, r17
    1b32:	43 0b       	sbc	r20, r19
    1b34:	56 0b       	sbc	r21, r22
    1b36:	c9 0b       	sbc	r28, r25
    1b38:	d0 09       	sbc	r29, r0
    1b3a:	c0 f7       	brcc	.-16     	; 0x1b2c <__ftoa_engine+0x10a>
    1b3c:	e1 0c       	add	r14, r1
    1b3e:	f1 1e       	adc	r15, r17
    1b40:	43 1f       	adc	r20, r19
    1b42:	56 1f       	adc	r21, r22
    1b44:	c9 1f       	adc	r28, r25
    1b46:	d0 1d       	adc	r29, r0
    1b48:	7e f4       	brtc	.+30     	; 0x1b68 <__ftoa_engine+0x146>
    1b4a:	70 33       	cpi	r23, 0x30	; 48
    1b4c:	11 f4       	brne	.+4      	; 0x1b52 <__ftoa_engine+0x130>
    1b4e:	8a 95       	dec	r24
    1b50:	e6 cf       	rjmp	.-52     	; 0x1b1e <__ftoa_engine+0xfc>
    1b52:	e8 94       	clt
    1b54:	01 50       	subi	r16, 0x01	; 1
    1b56:	30 f0       	brcs	.+12     	; 0x1b64 <__ftoa_engine+0x142>
    1b58:	08 0f       	add	r16, r24
    1b5a:	0a f4       	brpl	.+2      	; 0x1b5e <__ftoa_engine+0x13c>
    1b5c:	00 27       	eor	r16, r16
    1b5e:	02 17       	cp	r16, r18
    1b60:	08 f4       	brcc	.+2      	; 0x1b64 <__ftoa_engine+0x142>
    1b62:	20 2f       	mov	r18, r16
    1b64:	23 95       	inc	r18
    1b66:	02 2f       	mov	r16, r18
    1b68:	7a 33       	cpi	r23, 0x3A	; 58
    1b6a:	28 f0       	brcs	.+10     	; 0x1b76 <__ftoa_engine+0x154>
    1b6c:	79 e3       	ldi	r23, 0x39	; 57
    1b6e:	7d 93       	st	X+, r23
    1b70:	2a 95       	dec	r18
    1b72:	e9 f7       	brne	.-6      	; 0x1b6e <__ftoa_engine+0x14c>
    1b74:	10 c0       	rjmp	.+32     	; 0x1b96 <__ftoa_engine+0x174>
    1b76:	7d 93       	st	X+, r23
    1b78:	2a 95       	dec	r18
    1b7a:	89 f6       	brne	.-94     	; 0x1b1e <__ftoa_engine+0xfc>
    1b7c:	06 94       	lsr	r0
    1b7e:	97 95       	ror	r25
    1b80:	67 95       	ror	r22
    1b82:	37 95       	ror	r19
    1b84:	17 95       	ror	r17
    1b86:	17 94       	ror	r1
    1b88:	e1 18       	sub	r14, r1
    1b8a:	f1 0a       	sbc	r15, r17
    1b8c:	43 0b       	sbc	r20, r19
    1b8e:	56 0b       	sbc	r21, r22
    1b90:	c9 0b       	sbc	r28, r25
    1b92:	d0 09       	sbc	r29, r0
    1b94:	98 f0       	brcs	.+38     	; 0x1bbc <__ftoa_engine+0x19a>
    1b96:	23 95       	inc	r18
    1b98:	7e 91       	ld	r23, -X
    1b9a:	73 95       	inc	r23
    1b9c:	7a 33       	cpi	r23, 0x3A	; 58
    1b9e:	08 f0       	brcs	.+2      	; 0x1ba2 <__ftoa_engine+0x180>
    1ba0:	70 e3       	ldi	r23, 0x30	; 48
    1ba2:	7c 93       	st	X, r23
    1ba4:	20 13       	cpse	r18, r16
    1ba6:	b8 f7       	brcc	.-18     	; 0x1b96 <__ftoa_engine+0x174>
    1ba8:	7e 91       	ld	r23, -X
    1baa:	70 61       	ori	r23, 0x10	; 16
    1bac:	7d 93       	st	X+, r23
    1bae:	30 f0       	brcs	.+12     	; 0x1bbc <__ftoa_engine+0x19a>
    1bb0:	83 95       	inc	r24
    1bb2:	71 e3       	ldi	r23, 0x31	; 49
    1bb4:	7d 93       	st	X+, r23
    1bb6:	70 e3       	ldi	r23, 0x30	; 48
    1bb8:	2a 95       	dec	r18
    1bba:	e1 f7       	brne	.-8      	; 0x1bb4 <__ftoa_engine+0x192>
    1bbc:	11 24       	eor	r1, r1
    1bbe:	ef 90       	pop	r14
    1bc0:	ff 90       	pop	r15
    1bc2:	0f 91       	pop	r16
    1bc4:	1f 91       	pop	r17
    1bc6:	cf 91       	pop	r28
    1bc8:	df 91       	pop	r29
    1bca:	99 27       	eor	r25, r25
    1bcc:	87 fd       	sbrc	r24, 7
    1bce:	90 95       	com	r25
    1bd0:	08 95       	ret

00001bd2 <strnlen_P>:
    1bd2:	fc 01       	movw	r30, r24
    1bd4:	05 90       	lpm	r0, Z+
    1bd6:	61 50       	subi	r22, 0x01	; 1
    1bd8:	70 40       	sbci	r23, 0x00	; 0
    1bda:	01 10       	cpse	r0, r1
    1bdc:	d8 f7       	brcc	.-10     	; 0x1bd4 <strnlen_P+0x2>
    1bde:	80 95       	com	r24
    1be0:	90 95       	com	r25
    1be2:	8e 0f       	add	r24, r30
    1be4:	9f 1f       	adc	r25, r31
    1be6:	08 95       	ret

00001be8 <strnlen>:
    1be8:	fc 01       	movw	r30, r24
    1bea:	61 50       	subi	r22, 0x01	; 1
    1bec:	70 40       	sbci	r23, 0x00	; 0
    1bee:	01 90       	ld	r0, Z+
    1bf0:	01 10       	cpse	r0, r1
    1bf2:	d8 f7       	brcc	.-10     	; 0x1bea <strnlen+0x2>
    1bf4:	80 95       	com	r24
    1bf6:	90 95       	com	r25
    1bf8:	8e 0f       	add	r24, r30
    1bfa:	9f 1f       	adc	r25, r31
    1bfc:	08 95       	ret

00001bfe <fdevopen>:
    1bfe:	0f 93       	push	r16
    1c00:	1f 93       	push	r17
    1c02:	cf 93       	push	r28
    1c04:	df 93       	push	r29
    1c06:	8c 01       	movw	r16, r24
    1c08:	eb 01       	movw	r28, r22
    1c0a:	00 97       	sbiw	r24, 0x00	; 0
    1c0c:	31 f4       	brne	.+12     	; 0x1c1a <fdevopen+0x1c>
    1c0e:	61 15       	cp	r22, r1
    1c10:	71 05       	cpc	r23, r1
    1c12:	19 f4       	brne	.+6      	; 0x1c1a <fdevopen+0x1c>
    1c14:	20 e0       	ldi	r18, 0x00	; 0
    1c16:	30 e0       	ldi	r19, 0x00	; 0
    1c18:	38 c0       	rjmp	.+112    	; 0x1c8a <fdevopen+0x8c>
    1c1a:	81 e0       	ldi	r24, 0x01	; 1
    1c1c:	90 e0       	ldi	r25, 0x00	; 0
    1c1e:	6e e0       	ldi	r22, 0x0E	; 14
    1c20:	70 e0       	ldi	r23, 0x00	; 0
    1c22:	0e 94 26 0f 	call	0x1e4c	; 0x1e4c <calloc>
    1c26:	fc 01       	movw	r30, r24
    1c28:	9c 01       	movw	r18, r24
    1c2a:	00 97       	sbiw	r24, 0x00	; 0
    1c2c:	71 f1       	breq	.+92     	; 0x1c8a <fdevopen+0x8c>
    1c2e:	80 e8       	ldi	r24, 0x80	; 128
    1c30:	83 83       	std	Z+3, r24	; 0x03
    1c32:	20 97       	sbiw	r28, 0x00	; 0
    1c34:	71 f0       	breq	.+28     	; 0x1c52 <fdevopen+0x54>
    1c36:	d3 87       	std	Z+11, r29	; 0x0b
    1c38:	c2 87       	std	Z+10, r28	; 0x0a
    1c3a:	81 e8       	ldi	r24, 0x81	; 129
    1c3c:	83 83       	std	Z+3, r24	; 0x03
    1c3e:	80 91 fb 01 	lds	r24, 0x01FB
    1c42:	90 91 fc 01 	lds	r25, 0x01FC
    1c46:	89 2b       	or	r24, r25
    1c48:	21 f4       	brne	.+8      	; 0x1c52 <fdevopen+0x54>
    1c4a:	f0 93 fc 01 	sts	0x01FC, r31
    1c4e:	e0 93 fb 01 	sts	0x01FB, r30
    1c52:	01 15       	cp	r16, r1
    1c54:	11 05       	cpc	r17, r1
    1c56:	c9 f0       	breq	.+50     	; 0x1c8a <fdevopen+0x8c>
    1c58:	11 87       	std	Z+9, r17	; 0x09
    1c5a:	00 87       	std	Z+8, r16	; 0x08
    1c5c:	83 81       	ldd	r24, Z+3	; 0x03
    1c5e:	82 60       	ori	r24, 0x02	; 2
    1c60:	83 83       	std	Z+3, r24	; 0x03
    1c62:	80 91 fd 01 	lds	r24, 0x01FD
    1c66:	90 91 fe 01 	lds	r25, 0x01FE
    1c6a:	89 2b       	or	r24, r25
    1c6c:	71 f4       	brne	.+28     	; 0x1c8a <fdevopen+0x8c>
    1c6e:	f0 93 fe 01 	sts	0x01FE, r31
    1c72:	e0 93 fd 01 	sts	0x01FD, r30
    1c76:	80 91 ff 01 	lds	r24, 0x01FF
    1c7a:	90 91 00 02 	lds	r25, 0x0200
    1c7e:	89 2b       	or	r24, r25
    1c80:	21 f4       	brne	.+8      	; 0x1c8a <fdevopen+0x8c>
    1c82:	f0 93 00 02 	sts	0x0200, r31
    1c86:	e0 93 ff 01 	sts	0x01FF, r30
    1c8a:	c9 01       	movw	r24, r18
    1c8c:	df 91       	pop	r29
    1c8e:	cf 91       	pop	r28
    1c90:	1f 91       	pop	r17
    1c92:	0f 91       	pop	r16
    1c94:	08 95       	ret

00001c96 <fputc>:
    1c96:	0f 93       	push	r16
    1c98:	1f 93       	push	r17
    1c9a:	cf 93       	push	r28
    1c9c:	df 93       	push	r29
    1c9e:	8c 01       	movw	r16, r24
    1ca0:	eb 01       	movw	r28, r22
    1ca2:	8b 81       	ldd	r24, Y+3	; 0x03
    1ca4:	81 ff       	sbrs	r24, 1
    1ca6:	1b c0       	rjmp	.+54     	; 0x1cde <fputc+0x48>
    1ca8:	82 ff       	sbrs	r24, 2
    1caa:	0d c0       	rjmp	.+26     	; 0x1cc6 <fputc+0x30>
    1cac:	2e 81       	ldd	r18, Y+6	; 0x06
    1cae:	3f 81       	ldd	r19, Y+7	; 0x07
    1cb0:	8c 81       	ldd	r24, Y+4	; 0x04
    1cb2:	9d 81       	ldd	r25, Y+5	; 0x05
    1cb4:	28 17       	cp	r18, r24
    1cb6:	39 07       	cpc	r19, r25
    1cb8:	64 f4       	brge	.+24     	; 0x1cd2 <fputc+0x3c>
    1cba:	e8 81       	ld	r30, Y
    1cbc:	f9 81       	ldd	r31, Y+1	; 0x01
    1cbe:	01 93       	st	Z+, r16
    1cc0:	f9 83       	std	Y+1, r31	; 0x01
    1cc2:	e8 83       	st	Y, r30
    1cc4:	06 c0       	rjmp	.+12     	; 0x1cd2 <fputc+0x3c>
    1cc6:	e8 85       	ldd	r30, Y+8	; 0x08
    1cc8:	f9 85       	ldd	r31, Y+9	; 0x09
    1cca:	80 2f       	mov	r24, r16
    1ccc:	09 95       	icall
    1cce:	89 2b       	or	r24, r25
    1cd0:	31 f4       	brne	.+12     	; 0x1cde <fputc+0x48>
    1cd2:	8e 81       	ldd	r24, Y+6	; 0x06
    1cd4:	9f 81       	ldd	r25, Y+7	; 0x07
    1cd6:	01 96       	adiw	r24, 0x01	; 1
    1cd8:	9f 83       	std	Y+7, r25	; 0x07
    1cda:	8e 83       	std	Y+6, r24	; 0x06
    1cdc:	02 c0       	rjmp	.+4      	; 0x1ce2 <fputc+0x4c>
    1cde:	0f ef       	ldi	r16, 0xFF	; 255
    1ce0:	1f ef       	ldi	r17, 0xFF	; 255
    1ce2:	c8 01       	movw	r24, r16
    1ce4:	df 91       	pop	r29
    1ce6:	cf 91       	pop	r28
    1ce8:	1f 91       	pop	r17
    1cea:	0f 91       	pop	r16
    1cec:	08 95       	ret

00001cee <printf>:
    1cee:	a0 e0       	ldi	r26, 0x00	; 0
    1cf0:	b0 e0       	ldi	r27, 0x00	; 0
    1cf2:	ed e7       	ldi	r30, 0x7D	; 125
    1cf4:	fe e0       	ldi	r31, 0x0E	; 14
    1cf6:	0c 94 ea 0c 	jmp	0x19d4	; 0x19d4 <__prologue_saves__+0x20>
    1cfa:	fe 01       	movw	r30, r28
    1cfc:	35 96       	adiw	r30, 0x05	; 5
    1cfe:	61 91       	ld	r22, Z+
    1d00:	71 91       	ld	r23, Z+
    1d02:	80 91 fd 01 	lds	r24, 0x01FD
    1d06:	90 91 fe 01 	lds	r25, 0x01FE
    1d0a:	af 01       	movw	r20, r30
    1d0c:	0e 94 2c 09 	call	0x1258	; 0x1258 <vfprintf>
    1d10:	20 96       	adiw	r28, 0x00	; 0
    1d12:	e2 e0       	ldi	r30, 0x02	; 2
    1d14:	0c 94 06 0d 	jmp	0x1a0c	; 0x1a0c <__epilogue_restores__+0x20>

00001d18 <putchar>:
    1d18:	60 91 fd 01 	lds	r22, 0x01FD
    1d1c:	70 91 fe 01 	lds	r23, 0x01FE
    1d20:	0e 94 4b 0e 	call	0x1c96	; 0x1c96 <fputc>
    1d24:	08 95       	ret

00001d26 <puts>:
    1d26:	0f 93       	push	r16
    1d28:	1f 93       	push	r17
    1d2a:	cf 93       	push	r28
    1d2c:	df 93       	push	r29
    1d2e:	8c 01       	movw	r16, r24
    1d30:	e0 91 fd 01 	lds	r30, 0x01FD
    1d34:	f0 91 fe 01 	lds	r31, 0x01FE
    1d38:	83 81       	ldd	r24, Z+3	; 0x03
    1d3a:	81 ff       	sbrs	r24, 1
    1d3c:	21 c0       	rjmp	.+66     	; 0x1d80 <puts+0x5a>
    1d3e:	c0 e0       	ldi	r28, 0x00	; 0
    1d40:	d0 e0       	ldi	r29, 0x00	; 0
    1d42:	0d c0       	rjmp	.+26     	; 0x1d5e <puts+0x38>
    1d44:	e0 91 fd 01 	lds	r30, 0x01FD
    1d48:	f0 91 fe 01 	lds	r31, 0x01FE
    1d4c:	20 85       	ldd	r18, Z+8	; 0x08
    1d4e:	31 85       	ldd	r19, Z+9	; 0x09
    1d50:	bf 01       	movw	r22, r30
    1d52:	f9 01       	movw	r30, r18
    1d54:	09 95       	icall
    1d56:	89 2b       	or	r24, r25
    1d58:	11 f0       	breq	.+4      	; 0x1d5e <puts+0x38>
    1d5a:	cf ef       	ldi	r28, 0xFF	; 255
    1d5c:	df ef       	ldi	r29, 0xFF	; 255
    1d5e:	f8 01       	movw	r30, r16
    1d60:	81 91       	ld	r24, Z+
    1d62:	8f 01       	movw	r16, r30
    1d64:	88 23       	and	r24, r24
    1d66:	71 f7       	brne	.-36     	; 0x1d44 <puts+0x1e>
    1d68:	e0 91 fd 01 	lds	r30, 0x01FD
    1d6c:	f0 91 fe 01 	lds	r31, 0x01FE
    1d70:	20 85       	ldd	r18, Z+8	; 0x08
    1d72:	31 85       	ldd	r19, Z+9	; 0x09
    1d74:	8a e0       	ldi	r24, 0x0A	; 10
    1d76:	bf 01       	movw	r22, r30
    1d78:	f9 01       	movw	r30, r18
    1d7a:	09 95       	icall
    1d7c:	89 2b       	or	r24, r25
    1d7e:	11 f0       	breq	.+4      	; 0x1d84 <puts+0x5e>
    1d80:	cf ef       	ldi	r28, 0xFF	; 255
    1d82:	df ef       	ldi	r29, 0xFF	; 255
    1d84:	ce 01       	movw	r24, r28
    1d86:	df 91       	pop	r29
    1d88:	cf 91       	pop	r28
    1d8a:	1f 91       	pop	r17
    1d8c:	0f 91       	pop	r16
    1d8e:	08 95       	ret

00001d90 <__ultoa_invert>:
    1d90:	fa 01       	movw	r30, r20
    1d92:	aa 27       	eor	r26, r26
    1d94:	28 30       	cpi	r18, 0x08	; 8
    1d96:	51 f1       	breq	.+84     	; 0x1dec <__ultoa_invert+0x5c>
    1d98:	20 31       	cpi	r18, 0x10	; 16
    1d9a:	81 f1       	breq	.+96     	; 0x1dfc <__ultoa_invert+0x6c>
    1d9c:	e8 94       	clt
    1d9e:	6f 93       	push	r22
    1da0:	6e 7f       	andi	r22, 0xFE	; 254
    1da2:	6e 5f       	subi	r22, 0xFE	; 254
    1da4:	7f 4f       	sbci	r23, 0xFF	; 255
    1da6:	8f 4f       	sbci	r24, 0xFF	; 255
    1da8:	9f 4f       	sbci	r25, 0xFF	; 255
    1daa:	af 4f       	sbci	r26, 0xFF	; 255
    1dac:	b1 e0       	ldi	r27, 0x01	; 1
    1dae:	3e d0       	rcall	.+124    	; 0x1e2c <__ultoa_invert+0x9c>
    1db0:	b4 e0       	ldi	r27, 0x04	; 4
    1db2:	3c d0       	rcall	.+120    	; 0x1e2c <__ultoa_invert+0x9c>
    1db4:	67 0f       	add	r22, r23
    1db6:	78 1f       	adc	r23, r24
    1db8:	89 1f       	adc	r24, r25
    1dba:	9a 1f       	adc	r25, r26
    1dbc:	a1 1d       	adc	r26, r1
    1dbe:	68 0f       	add	r22, r24
    1dc0:	79 1f       	adc	r23, r25
    1dc2:	8a 1f       	adc	r24, r26
    1dc4:	91 1d       	adc	r25, r1
    1dc6:	a1 1d       	adc	r26, r1
    1dc8:	6a 0f       	add	r22, r26
    1dca:	71 1d       	adc	r23, r1
    1dcc:	81 1d       	adc	r24, r1
    1dce:	91 1d       	adc	r25, r1
    1dd0:	a1 1d       	adc	r26, r1
    1dd2:	20 d0       	rcall	.+64     	; 0x1e14 <__ultoa_invert+0x84>
    1dd4:	09 f4       	brne	.+2      	; 0x1dd8 <__ultoa_invert+0x48>
    1dd6:	68 94       	set
    1dd8:	3f 91       	pop	r19
    1dda:	2a e0       	ldi	r18, 0x0A	; 10
    1ddc:	26 9f       	mul	r18, r22
    1dde:	11 24       	eor	r1, r1
    1de0:	30 19       	sub	r19, r0
    1de2:	30 5d       	subi	r19, 0xD0	; 208
    1de4:	31 93       	st	Z+, r19
    1de6:	de f6       	brtc	.-74     	; 0x1d9e <__ultoa_invert+0xe>
    1de8:	cf 01       	movw	r24, r30
    1dea:	08 95       	ret
    1dec:	46 2f       	mov	r20, r22
    1dee:	47 70       	andi	r20, 0x07	; 7
    1df0:	40 5d       	subi	r20, 0xD0	; 208
    1df2:	41 93       	st	Z+, r20
    1df4:	b3 e0       	ldi	r27, 0x03	; 3
    1df6:	0f d0       	rcall	.+30     	; 0x1e16 <__ultoa_invert+0x86>
    1df8:	c9 f7       	brne	.-14     	; 0x1dec <__ultoa_invert+0x5c>
    1dfa:	f6 cf       	rjmp	.-20     	; 0x1de8 <__ultoa_invert+0x58>
    1dfc:	46 2f       	mov	r20, r22
    1dfe:	4f 70       	andi	r20, 0x0F	; 15
    1e00:	40 5d       	subi	r20, 0xD0	; 208
    1e02:	4a 33       	cpi	r20, 0x3A	; 58
    1e04:	18 f0       	brcs	.+6      	; 0x1e0c <__ultoa_invert+0x7c>
    1e06:	49 5d       	subi	r20, 0xD9	; 217
    1e08:	31 fd       	sbrc	r19, 1
    1e0a:	40 52       	subi	r20, 0x20	; 32
    1e0c:	41 93       	st	Z+, r20
    1e0e:	02 d0       	rcall	.+4      	; 0x1e14 <__ultoa_invert+0x84>
    1e10:	a9 f7       	brne	.-22     	; 0x1dfc <__ultoa_invert+0x6c>
    1e12:	ea cf       	rjmp	.-44     	; 0x1de8 <__ultoa_invert+0x58>
    1e14:	b4 e0       	ldi	r27, 0x04	; 4
    1e16:	a6 95       	lsr	r26
    1e18:	97 95       	ror	r25
    1e1a:	87 95       	ror	r24
    1e1c:	77 95       	ror	r23
    1e1e:	67 95       	ror	r22
    1e20:	ba 95       	dec	r27
    1e22:	c9 f7       	brne	.-14     	; 0x1e16 <__ultoa_invert+0x86>
    1e24:	00 97       	sbiw	r24, 0x00	; 0
    1e26:	61 05       	cpc	r22, r1
    1e28:	71 05       	cpc	r23, r1
    1e2a:	08 95       	ret
    1e2c:	9b 01       	movw	r18, r22
    1e2e:	ac 01       	movw	r20, r24
    1e30:	0a 2e       	mov	r0, r26
    1e32:	06 94       	lsr	r0
    1e34:	57 95       	ror	r21
    1e36:	47 95       	ror	r20
    1e38:	37 95       	ror	r19
    1e3a:	27 95       	ror	r18
    1e3c:	ba 95       	dec	r27
    1e3e:	c9 f7       	brne	.-14     	; 0x1e32 <__ultoa_invert+0xa2>
    1e40:	62 0f       	add	r22, r18
    1e42:	73 1f       	adc	r23, r19
    1e44:	84 1f       	adc	r24, r20
    1e46:	95 1f       	adc	r25, r21
    1e48:	a0 1d       	adc	r26, r0
    1e4a:	08 95       	ret

00001e4c <calloc>:
    1e4c:	0f 93       	push	r16
    1e4e:	1f 93       	push	r17
    1e50:	cf 93       	push	r28
    1e52:	df 93       	push	r29
    1e54:	68 9f       	mul	r22, r24
    1e56:	80 01       	movw	r16, r0
    1e58:	69 9f       	mul	r22, r25
    1e5a:	10 0d       	add	r17, r0
    1e5c:	78 9f       	mul	r23, r24
    1e5e:	10 0d       	add	r17, r0
    1e60:	11 24       	eor	r1, r1
    1e62:	c8 01       	movw	r24, r16
    1e64:	0e 94 42 0f 	call	0x1e84	; 0x1e84 <malloc>
    1e68:	ec 01       	movw	r28, r24
    1e6a:	00 97       	sbiw	r24, 0x00	; 0
    1e6c:	29 f0       	breq	.+10     	; 0x1e78 <calloc+0x2c>
    1e6e:	60 e0       	ldi	r22, 0x00	; 0
    1e70:	70 e0       	ldi	r23, 0x00	; 0
    1e72:	a8 01       	movw	r20, r16
    1e74:	0e 94 47 10 	call	0x208e	; 0x208e <memset>
    1e78:	ce 01       	movw	r24, r28
    1e7a:	df 91       	pop	r29
    1e7c:	cf 91       	pop	r28
    1e7e:	1f 91       	pop	r17
    1e80:	0f 91       	pop	r16
    1e82:	08 95       	ret

00001e84 <malloc>:
    1e84:	cf 93       	push	r28
    1e86:	df 93       	push	r29
    1e88:	bc 01       	movw	r22, r24
    1e8a:	82 30       	cpi	r24, 0x02	; 2
    1e8c:	91 05       	cpc	r25, r1
    1e8e:	10 f4       	brcc	.+4      	; 0x1e94 <malloc+0x10>
    1e90:	62 e0       	ldi	r22, 0x02	; 2
    1e92:	70 e0       	ldi	r23, 0x00	; 0
    1e94:	a0 91 03 02 	lds	r26, 0x0203
    1e98:	b0 91 04 02 	lds	r27, 0x0204
    1e9c:	ed 01       	movw	r28, r26
    1e9e:	e0 e0       	ldi	r30, 0x00	; 0
    1ea0:	f0 e0       	ldi	r31, 0x00	; 0
    1ea2:	40 e0       	ldi	r20, 0x00	; 0
    1ea4:	50 e0       	ldi	r21, 0x00	; 0
    1ea6:	21 c0       	rjmp	.+66     	; 0x1eea <malloc+0x66>
    1ea8:	88 81       	ld	r24, Y
    1eaa:	99 81       	ldd	r25, Y+1	; 0x01
    1eac:	86 17       	cp	r24, r22
    1eae:	97 07       	cpc	r25, r23
    1eb0:	69 f4       	brne	.+26     	; 0x1ecc <malloc+0x48>
    1eb2:	8a 81       	ldd	r24, Y+2	; 0x02
    1eb4:	9b 81       	ldd	r25, Y+3	; 0x03
    1eb6:	30 97       	sbiw	r30, 0x00	; 0
    1eb8:	19 f0       	breq	.+6      	; 0x1ec0 <malloc+0x3c>
    1eba:	93 83       	std	Z+3, r25	; 0x03
    1ebc:	82 83       	std	Z+2, r24	; 0x02
    1ebe:	04 c0       	rjmp	.+8      	; 0x1ec8 <malloc+0x44>
    1ec0:	90 93 04 02 	sts	0x0204, r25
    1ec4:	80 93 03 02 	sts	0x0203, r24
    1ec8:	fe 01       	movw	r30, r28
    1eca:	34 c0       	rjmp	.+104    	; 0x1f34 <malloc+0xb0>
    1ecc:	68 17       	cp	r22, r24
    1ece:	79 07       	cpc	r23, r25
    1ed0:	38 f4       	brcc	.+14     	; 0x1ee0 <malloc+0x5c>
    1ed2:	41 15       	cp	r20, r1
    1ed4:	51 05       	cpc	r21, r1
    1ed6:	19 f0       	breq	.+6      	; 0x1ede <malloc+0x5a>
    1ed8:	84 17       	cp	r24, r20
    1eda:	95 07       	cpc	r25, r21
    1edc:	08 f4       	brcc	.+2      	; 0x1ee0 <malloc+0x5c>
    1ede:	ac 01       	movw	r20, r24
    1ee0:	fe 01       	movw	r30, r28
    1ee2:	8a 81       	ldd	r24, Y+2	; 0x02
    1ee4:	9b 81       	ldd	r25, Y+3	; 0x03
    1ee6:	9c 01       	movw	r18, r24
    1ee8:	e9 01       	movw	r28, r18
    1eea:	20 97       	sbiw	r28, 0x00	; 0
    1eec:	e9 f6       	brne	.-70     	; 0x1ea8 <malloc+0x24>
    1eee:	41 15       	cp	r20, r1
    1ef0:	51 05       	cpc	r21, r1
    1ef2:	a9 f1       	breq	.+106    	; 0x1f5e <malloc+0xda>
    1ef4:	ca 01       	movw	r24, r20
    1ef6:	86 1b       	sub	r24, r22
    1ef8:	97 0b       	sbc	r25, r23
    1efa:	04 97       	sbiw	r24, 0x04	; 4
    1efc:	08 f4       	brcc	.+2      	; 0x1f00 <malloc+0x7c>
    1efe:	ba 01       	movw	r22, r20
    1f00:	e0 e0       	ldi	r30, 0x00	; 0
    1f02:	f0 e0       	ldi	r31, 0x00	; 0
    1f04:	2a c0       	rjmp	.+84     	; 0x1f5a <malloc+0xd6>
    1f06:	8d 91       	ld	r24, X+
    1f08:	9c 91       	ld	r25, X
    1f0a:	11 97       	sbiw	r26, 0x01	; 1
    1f0c:	84 17       	cp	r24, r20
    1f0e:	95 07       	cpc	r25, r21
    1f10:	f9 f4       	brne	.+62     	; 0x1f50 <malloc+0xcc>
    1f12:	64 17       	cp	r22, r20
    1f14:	75 07       	cpc	r23, r21
    1f16:	81 f4       	brne	.+32     	; 0x1f38 <malloc+0xb4>
    1f18:	12 96       	adiw	r26, 0x02	; 2
    1f1a:	8d 91       	ld	r24, X+
    1f1c:	9c 91       	ld	r25, X
    1f1e:	13 97       	sbiw	r26, 0x03	; 3
    1f20:	30 97       	sbiw	r30, 0x00	; 0
    1f22:	19 f0       	breq	.+6      	; 0x1f2a <malloc+0xa6>
    1f24:	93 83       	std	Z+3, r25	; 0x03
    1f26:	82 83       	std	Z+2, r24	; 0x02
    1f28:	04 c0       	rjmp	.+8      	; 0x1f32 <malloc+0xae>
    1f2a:	90 93 04 02 	sts	0x0204, r25
    1f2e:	80 93 03 02 	sts	0x0203, r24
    1f32:	fd 01       	movw	r30, r26
    1f34:	32 96       	adiw	r30, 0x02	; 2
    1f36:	4f c0       	rjmp	.+158    	; 0x1fd6 <malloc+0x152>
    1f38:	ca 01       	movw	r24, r20
    1f3a:	86 1b       	sub	r24, r22
    1f3c:	97 0b       	sbc	r25, r23
    1f3e:	fd 01       	movw	r30, r26
    1f40:	e8 0f       	add	r30, r24
    1f42:	f9 1f       	adc	r31, r25
    1f44:	61 93       	st	Z+, r22
    1f46:	71 93       	st	Z+, r23
    1f48:	02 97       	sbiw	r24, 0x02	; 2
    1f4a:	8d 93       	st	X+, r24
    1f4c:	9c 93       	st	X, r25
    1f4e:	43 c0       	rjmp	.+134    	; 0x1fd6 <malloc+0x152>
    1f50:	fd 01       	movw	r30, r26
    1f52:	82 81       	ldd	r24, Z+2	; 0x02
    1f54:	93 81       	ldd	r25, Z+3	; 0x03
    1f56:	9c 01       	movw	r18, r24
    1f58:	d9 01       	movw	r26, r18
    1f5a:	10 97       	sbiw	r26, 0x00	; 0
    1f5c:	a1 f6       	brne	.-88     	; 0x1f06 <malloc+0x82>
    1f5e:	80 91 01 02 	lds	r24, 0x0201
    1f62:	90 91 02 02 	lds	r25, 0x0202
    1f66:	89 2b       	or	r24, r25
    1f68:	41 f4       	brne	.+16     	; 0x1f7a <malloc+0xf6>
    1f6a:	80 91 9f 01 	lds	r24, 0x019F
    1f6e:	90 91 a0 01 	lds	r25, 0x01A0
    1f72:	90 93 02 02 	sts	0x0202, r25
    1f76:	80 93 01 02 	sts	0x0201, r24
    1f7a:	40 91 a1 01 	lds	r20, 0x01A1
    1f7e:	50 91 a2 01 	lds	r21, 0x01A2
    1f82:	41 15       	cp	r20, r1
    1f84:	51 05       	cpc	r21, r1
    1f86:	41 f4       	brne	.+16     	; 0x1f98 <malloc+0x114>
    1f88:	4d b7       	in	r20, 0x3d	; 61
    1f8a:	5e b7       	in	r21, 0x3e	; 62
    1f8c:	80 91 9d 01 	lds	r24, 0x019D
    1f90:	90 91 9e 01 	lds	r25, 0x019E
    1f94:	48 1b       	sub	r20, r24
    1f96:	59 0b       	sbc	r21, r25
    1f98:	20 91 01 02 	lds	r18, 0x0201
    1f9c:	30 91 02 02 	lds	r19, 0x0202
    1fa0:	24 17       	cp	r18, r20
    1fa2:	35 07       	cpc	r19, r21
    1fa4:	b0 f4       	brcc	.+44     	; 0x1fd2 <malloc+0x14e>
    1fa6:	ca 01       	movw	r24, r20
    1fa8:	82 1b       	sub	r24, r18
    1faa:	93 0b       	sbc	r25, r19
    1fac:	86 17       	cp	r24, r22
    1fae:	97 07       	cpc	r25, r23
    1fb0:	80 f0       	brcs	.+32     	; 0x1fd2 <malloc+0x14e>
    1fb2:	ab 01       	movw	r20, r22
    1fb4:	4e 5f       	subi	r20, 0xFE	; 254
    1fb6:	5f 4f       	sbci	r21, 0xFF	; 255
    1fb8:	84 17       	cp	r24, r20
    1fba:	95 07       	cpc	r25, r21
    1fbc:	50 f0       	brcs	.+20     	; 0x1fd2 <malloc+0x14e>
    1fbe:	42 0f       	add	r20, r18
    1fc0:	53 1f       	adc	r21, r19
    1fc2:	50 93 02 02 	sts	0x0202, r21
    1fc6:	40 93 01 02 	sts	0x0201, r20
    1fca:	f9 01       	movw	r30, r18
    1fcc:	61 93       	st	Z+, r22
    1fce:	71 93       	st	Z+, r23
    1fd0:	02 c0       	rjmp	.+4      	; 0x1fd6 <malloc+0x152>
    1fd2:	e0 e0       	ldi	r30, 0x00	; 0
    1fd4:	f0 e0       	ldi	r31, 0x00	; 0
    1fd6:	cf 01       	movw	r24, r30
    1fd8:	df 91       	pop	r29
    1fda:	cf 91       	pop	r28
    1fdc:	08 95       	ret

00001fde <free>:
    1fde:	cf 93       	push	r28
    1fe0:	df 93       	push	r29
    1fe2:	00 97       	sbiw	r24, 0x00	; 0
    1fe4:	09 f4       	brne	.+2      	; 0x1fe8 <free+0xa>
    1fe6:	50 c0       	rjmp	.+160    	; 0x2088 <free+0xaa>
    1fe8:	ec 01       	movw	r28, r24
    1fea:	22 97       	sbiw	r28, 0x02	; 2
    1fec:	1b 82       	std	Y+3, r1	; 0x03
    1fee:	1a 82       	std	Y+2, r1	; 0x02
    1ff0:	a0 91 03 02 	lds	r26, 0x0203
    1ff4:	b0 91 04 02 	lds	r27, 0x0204
    1ff8:	10 97       	sbiw	r26, 0x00	; 0
    1ffa:	09 f1       	breq	.+66     	; 0x203e <free+0x60>
    1ffc:	40 e0       	ldi	r20, 0x00	; 0
    1ffe:	50 e0       	ldi	r21, 0x00	; 0
    2000:	ac 17       	cp	r26, r28
    2002:	bd 07       	cpc	r27, r29
    2004:	08 f1       	brcs	.+66     	; 0x2048 <free+0x6a>
    2006:	bb 83       	std	Y+3, r27	; 0x03
    2008:	aa 83       	std	Y+2, r26	; 0x02
    200a:	fe 01       	movw	r30, r28
    200c:	21 91       	ld	r18, Z+
    200e:	31 91       	ld	r19, Z+
    2010:	e2 0f       	add	r30, r18
    2012:	f3 1f       	adc	r31, r19
    2014:	ae 17       	cp	r26, r30
    2016:	bf 07       	cpc	r27, r31
    2018:	79 f4       	brne	.+30     	; 0x2038 <free+0x5a>
    201a:	8d 91       	ld	r24, X+
    201c:	9c 91       	ld	r25, X
    201e:	11 97       	sbiw	r26, 0x01	; 1
    2020:	28 0f       	add	r18, r24
    2022:	39 1f       	adc	r19, r25
    2024:	2e 5f       	subi	r18, 0xFE	; 254
    2026:	3f 4f       	sbci	r19, 0xFF	; 255
    2028:	39 83       	std	Y+1, r19	; 0x01
    202a:	28 83       	st	Y, r18
    202c:	12 96       	adiw	r26, 0x02	; 2
    202e:	8d 91       	ld	r24, X+
    2030:	9c 91       	ld	r25, X
    2032:	13 97       	sbiw	r26, 0x03	; 3
    2034:	9b 83       	std	Y+3, r25	; 0x03
    2036:	8a 83       	std	Y+2, r24	; 0x02
    2038:	41 15       	cp	r20, r1
    203a:	51 05       	cpc	r21, r1
    203c:	71 f4       	brne	.+28     	; 0x205a <free+0x7c>
    203e:	d0 93 04 02 	sts	0x0204, r29
    2042:	c0 93 03 02 	sts	0x0203, r28
    2046:	20 c0       	rjmp	.+64     	; 0x2088 <free+0xaa>
    2048:	12 96       	adiw	r26, 0x02	; 2
    204a:	8d 91       	ld	r24, X+
    204c:	9c 91       	ld	r25, X
    204e:	13 97       	sbiw	r26, 0x03	; 3
    2050:	ad 01       	movw	r20, r26
    2052:	00 97       	sbiw	r24, 0x00	; 0
    2054:	11 f0       	breq	.+4      	; 0x205a <free+0x7c>
    2056:	dc 01       	movw	r26, r24
    2058:	d3 cf       	rjmp	.-90     	; 0x2000 <free+0x22>
    205a:	fa 01       	movw	r30, r20
    205c:	d3 83       	std	Z+3, r29	; 0x03
    205e:	c2 83       	std	Z+2, r28	; 0x02
    2060:	21 91       	ld	r18, Z+
    2062:	31 91       	ld	r19, Z+
    2064:	e2 0f       	add	r30, r18
    2066:	f3 1f       	adc	r31, r19
    2068:	ce 17       	cp	r28, r30
    206a:	df 07       	cpc	r29, r31
    206c:	69 f4       	brne	.+26     	; 0x2088 <free+0xaa>
    206e:	88 81       	ld	r24, Y
    2070:	99 81       	ldd	r25, Y+1	; 0x01
    2072:	28 0f       	add	r18, r24
    2074:	39 1f       	adc	r19, r25
    2076:	2e 5f       	subi	r18, 0xFE	; 254
    2078:	3f 4f       	sbci	r19, 0xFF	; 255
    207a:	fa 01       	movw	r30, r20
    207c:	31 83       	std	Z+1, r19	; 0x01
    207e:	20 83       	st	Z, r18
    2080:	8a 81       	ldd	r24, Y+2	; 0x02
    2082:	9b 81       	ldd	r25, Y+3	; 0x03
    2084:	93 83       	std	Z+3, r25	; 0x03
    2086:	82 83       	std	Z+2, r24	; 0x02
    2088:	df 91       	pop	r29
    208a:	cf 91       	pop	r28
    208c:	08 95       	ret

0000208e <memset>:
    208e:	dc 01       	movw	r26, r24
    2090:	01 c0       	rjmp	.+2      	; 0x2094 <memset+0x6>
    2092:	6d 93       	st	X+, r22
    2094:	41 50       	subi	r20, 0x01	; 1
    2096:	50 40       	sbci	r21, 0x00	; 0
    2098:	e0 f7       	brcc	.-8      	; 0x2092 <memset+0x4>
    209a:	08 95       	ret

0000209c <_exit>:
    209c:	f8 94       	cli

0000209e <__stop_program>:
    209e:	ff cf       	rjmp	.-2      	; 0x209e <__stop_program>
